; Listing generated by Microsoft (R) Optimizing Compiler Version 16.00.11886.00 

	TITLE	C:\Users\DeadlyData\documents\visual studio 2010\Projects\Trainer\Trainer\d3d.cpp
	.PPC
	.MODEL FLAT
PUBLIC	__C2_11886
PUBLIC	__C1_11886
PUBLIC	D3DPRIMITIVEVERTEXCOUNT
PUBLIC	D3DTESSPRIMITIVEVERTEXCOUNT
PUBLIC	?g_XMSinCoefficients0@@3UXMVECTORF32@@B		; g_XMSinCoefficients0
PUBLIC	?g_XMSinCoefficients1@@3UXMVECTORF32@@B		; g_XMSinCoefficients1
PUBLIC	?g_XMSinCoefficients2@@3UXMVECTORF32@@B		; g_XMSinCoefficients2
PUBLIC	?g_XMCosCoefficients0@@3UXMVECTORF32@@B		; g_XMCosCoefficients0
PUBLIC	?g_XMCosCoefficients1@@3UXMVECTORF32@@B		; g_XMCosCoefficients1
PUBLIC	?g_XMCosCoefficients2@@3UXMVECTORF32@@B		; g_XMCosCoefficients2
PUBLIC	?g_XMTanCoefficients0@@3UXMVECTORF32@@B		; g_XMTanCoefficients0
PUBLIC	?g_XMTanCoefficients1@@3UXMVECTORF32@@B		; g_XMTanCoefficients1
PUBLIC	?g_XMTanCoefficients2@@3UXMVECTORF32@@B		; g_XMTanCoefficients2
PUBLIC	?g_XMASinCoefficients0@@3UXMVECTORF32@@B	; g_XMASinCoefficients0
PUBLIC	?g_XMASinCoefficients1@@3UXMVECTORF32@@B	; g_XMASinCoefficients1
PUBLIC	?g_XMASinCoefficients2@@3UXMVECTORF32@@B	; g_XMASinCoefficients2
PUBLIC	?g_XMATanCoefficients0@@3UXMVECTORF32@@B	; g_XMATanCoefficients0
PUBLIC	?g_XMATanCoefficients1@@3UXMVECTORF32@@B	; g_XMATanCoefficients1
PUBLIC	?g_XMATanCoefficients2@@3UXMVECTORF32@@B	; g_XMATanCoefficients2
PUBLIC	?g_XMSinEstCoefficients@@3UXMVECTORF32@@B	; g_XMSinEstCoefficients
PUBLIC	?g_XMCosEstCoefficients@@3UXMVECTORF32@@B	; g_XMCosEstCoefficients
PUBLIC	?g_XMTanEstCoefficients@@3UXMVECTORF32@@B	; g_XMTanEstCoefficients
PUBLIC	?g_XMATanEstCoefficients@@3UXMVECTORF32@@B	; g_XMATanEstCoefficients
PUBLIC	?g_XMASinEstCoefficients@@3UXMVECTORF32@@B	; g_XMASinEstCoefficients
PUBLIC	?g_XMASinEstConstants@@3UXMVECTORF32@@B		; g_XMASinEstConstants
PUBLIC	?g_XMPiConstants0@@3UXMVECTORF32@@B		; g_XMPiConstants0
PUBLIC	?g_XMIdentityR0@@3UXMVECTORF32@@B		; g_XMIdentityR0
PUBLIC	?g_XMIdentityR1@@3UXMVECTORF32@@B		; g_XMIdentityR1
PUBLIC	?g_XMIdentityR2@@3UXMVECTORF32@@B		; g_XMIdentityR2
PUBLIC	?g_XMIdentityR3@@3UXMVECTORF32@@B		; g_XMIdentityR3
PUBLIC	?g_XMNegIdentityR0@@3UXMVECTORF32@@B		; g_XMNegIdentityR0
PUBLIC	?g_XMNegIdentityR1@@3UXMVECTORF32@@B		; g_XMNegIdentityR1
PUBLIC	?g_XMNegIdentityR2@@3UXMVECTORF32@@B		; g_XMNegIdentityR2
PUBLIC	?g_XMNegIdentityR3@@3UXMVECTORF32@@B		; g_XMNegIdentityR3
PUBLIC	?g_XMNegativeZero@@3UXMVECTORI32@@B		; g_XMNegativeZero
PUBLIC	?g_XMNegate3@@3UXMVECTORI32@@B			; g_XMNegate3
PUBLIC	?g_XMMask3@@3UXMVECTORI32@@B			; g_XMMask3
PUBLIC	?g_XMMaskX@@3UXMVECTORI32@@B			; g_XMMaskX
PUBLIC	?g_XMMaskY@@3UXMVECTORI32@@B			; g_XMMaskY
PUBLIC	?g_XMMaskZ@@3UXMVECTORI32@@B			; g_XMMaskZ
PUBLIC	?g_XMMaskW@@3UXMVECTORI32@@B			; g_XMMaskW
PUBLIC	?g_XMOne@@3UXMVECTORF32@@B			; g_XMOne
PUBLIC	?g_XMOne3@@3UXMVECTORF32@@B			; g_XMOne3
PUBLIC	?g_XMZero@@3UXMVECTORF32@@B			; g_XMZero
PUBLIC	?g_XMNegativeOne@@3UXMVECTORF32@@B		; g_XMNegativeOne
PUBLIC	?g_XMOneHalf@@3UXMVECTORF32@@B			; g_XMOneHalf
PUBLIC	?g_XMNegativeOneHalf@@3UXMVECTORF32@@B		; g_XMNegativeOneHalf
PUBLIC	?g_XMNegativeTwoPi@@3UXMVECTORF32@@B		; g_XMNegativeTwoPi
PUBLIC	?g_XMNegativePi@@3UXMVECTORF32@@B		; g_XMNegativePi
PUBLIC	?g_XMHalfPi@@3UXMVECTORF32@@B			; g_XMHalfPi
PUBLIC	?g_XMPi@@3UXMVECTORF32@@B			; g_XMPi
PUBLIC	?g_XMReciprocalPi@@3UXMVECTORF32@@B		; g_XMReciprocalPi
PUBLIC	?g_XMTwoPi@@3UXMVECTORF32@@B			; g_XMTwoPi
PUBLIC	?g_XMReciprocalTwoPi@@3UXMVECTORF32@@B		; g_XMReciprocalTwoPi
PUBLIC	?g_XMEpsilon@@3UXMVECTORF32@@B			; g_XMEpsilon
PUBLIC	?g_XMInfinity@@3UXMVECTORI32@@B			; g_XMInfinity
PUBLIC	?g_XMQNaN@@3UXMVECTORI32@@B			; g_XMQNaN
PUBLIC	?g_XMQNaNTest@@3UXMVECTORI32@@B			; g_XMQNaNTest
PUBLIC	?g_XMAbsMask@@3UXMVECTORI32@@B			; g_XMAbsMask
PUBLIC	?g_XMFltMin@@3UXMVECTORI32@@B			; g_XMFltMin
PUBLIC	?g_XMFltMax@@3UXMVECTORI32@@B			; g_XMFltMax
PUBLIC	?g_XMNegOneMask@@3UXMVECTORI32@@B		; g_XMNegOneMask
PUBLIC	?g_XMMaskA8R8G8B8@@3UXMVECTORI32@@B		; g_XMMaskA8R8G8B8
PUBLIC	?g_XMFlipA8R8G8B8@@3UXMVECTORI32@@B		; g_XMFlipA8R8G8B8
PUBLIC	?g_XMFixAA8R8G8B8@@3UXMVECTORF32@@B		; g_XMFixAA8R8G8B8
PUBLIC	?g_XMNormalizeA8R8G8B8@@3UXMVECTORF32@@B	; g_XMNormalizeA8R8G8B8
PUBLIC	?g_XMMaskA2B10G10R10@@3UXMVECTORI32@@B		; g_XMMaskA2B10G10R10
PUBLIC	?g_XMFlipA2B10G10R10@@3UXMVECTORI32@@B		; g_XMFlipA2B10G10R10
PUBLIC	?g_XMFixAA2B10G10R10@@3UXMVECTORF32@@B		; g_XMFixAA2B10G10R10
PUBLIC	?g_XMNormalizeA2B10G10R10@@3UXMVECTORF32@@B	; g_XMNormalizeA2B10G10R10
PUBLIC	?g_XMMaskX16Y16@@3UXMVECTORI32@@B		; g_XMMaskX16Y16
PUBLIC	?g_XMFlipX16Y16@@3UXMVECTORI32@@B		; g_XMFlipX16Y16
PUBLIC	?g_XMFixX16Y16@@3UXMVECTORF32@@B		; g_XMFixX16Y16
PUBLIC	?g_XMNormalizeX16Y16@@3UXMVECTORF32@@B		; g_XMNormalizeX16Y16
PUBLIC	?g_XMMaskX16Y16Z16W16@@3UXMVECTORI32@@B		; g_XMMaskX16Y16Z16W16
PUBLIC	?g_XMFlipX16Y16Z16W16@@3UXMVECTORI32@@B		; g_XMFlipX16Y16Z16W16
PUBLIC	?g_XMFixX16Y16Z16W16@@3UXMVECTORF32@@B		; g_XMFixX16Y16Z16W16
PUBLIC	?g_XMNormalizeX16Y16Z16W16@@3UXMVECTORF32@@B	; g_XMNormalizeX16Y16Z16W16
PUBLIC	?g_XMNoFraction@@3UXMVECTORF32@@B		; g_XMNoFraction
PUBLIC	?g_XMMaskByte@@3UXMVECTORI32@@B			; g_XMMaskByte
PUBLIC	?g_XMNegateX@@3UXMVECTORF32@@B			; g_XMNegateX
PUBLIC	?g_XMNegateY@@3UXMVECTORF32@@B			; g_XMNegateY
PUBLIC	?g_XMNegateZ@@3UXMVECTORF32@@B			; g_XMNegateZ
PUBLIC	?g_XMNegateW@@3UXMVECTORF32@@B			; g_XMNegateW
PUBLIC	?g_XMSelect0101@@3UXMVECTORI32@@B		; g_XMSelect0101
PUBLIC	?g_XMSelect1010@@3UXMVECTORI32@@B		; g_XMSelect1010
PUBLIC	?g_XMOneHalfMinusEpsilon@@3UXMVECTORI32@@B	; g_XMOneHalfMinusEpsilon
PUBLIC	?g_XMSelect1000@@3UXMVECTORI32@@B		; g_XMSelect1000
PUBLIC	?g_XMSelect1100@@3UXMVECTORI32@@B		; g_XMSelect1100
PUBLIC	?g_XMSelect1110@@3UXMVECTORI32@@B		; g_XMSelect1110
PUBLIC	?g_XMSwizzleXYXY@@3UXMVECTORI32@@B		; g_XMSwizzleXYXY
PUBLIC	?g_XMSwizzleXYZX@@3UXMVECTORI32@@B		; g_XMSwizzleXYZX
PUBLIC	?g_XMSwizzleYXZW@@3UXMVECTORI32@@B		; g_XMSwizzleYXZW
PUBLIC	?g_XMSwizzleYZXW@@3UXMVECTORI32@@B		; g_XMSwizzleYZXW
PUBLIC	?g_XMSwizzleZXYW@@3UXMVECTORI32@@B		; g_XMSwizzleZXYW
PUBLIC	?g_XMPermute0X0Y1X1Y@@3UXMVECTORI32@@B		; g_XMPermute0X0Y1X1Y
PUBLIC	?g_XMPermute0Z0W1Z1W@@3UXMVECTORI32@@B		; g_XMPermute0Z0W1Z1W
PUBLIC	?g_XMFixupY16@@3UXMVECTORF32@@B			; g_XMFixupY16
PUBLIC	?g_XMFixupY16W16@@3UXMVECTORF32@@B		; g_XMFixupY16W16
PUBLIC	?g_XMFlipY@@3UXMVECTORI32@@B			; g_XMFlipY
PUBLIC	?g_XMFlipZ@@3UXMVECTORI32@@B			; g_XMFlipZ
PUBLIC	?g_XMFlipW@@3UXMVECTORI32@@B			; g_XMFlipW
PUBLIC	?g_XMFlipYZ@@3UXMVECTORI32@@B			; g_XMFlipYZ
PUBLIC	?g_XMFlipZW@@3UXMVECTORI32@@B			; g_XMFlipZW
PUBLIC	?g_XMFlipYW@@3UXMVECTORI32@@B			; g_XMFlipYW
PUBLIC	?g_XMMaskHenD3@@3UXMVECTORI32@@B		; g_XMMaskHenD3
PUBLIC	?g_XMMaskDHen3@@3UXMVECTORI32@@B		; g_XMMaskDHen3
PUBLIC	?g_XMAddUHenD3@@3UXMVECTORF32@@B		; g_XMAddUHenD3
PUBLIC	?g_XMAddHenD3@@3UXMVECTORF32@@B			; g_XMAddHenD3
PUBLIC	?g_XMAddDHen3@@3UXMVECTORF32@@B			; g_XMAddDHen3
PUBLIC	?g_XMMulHenD3@@3UXMVECTORF32@@B			; g_XMMulHenD3
PUBLIC	?g_XMMulDHen3@@3UXMVECTORF32@@B			; g_XMMulDHen3
PUBLIC	?g_XMXorHenD3@@3UXMVECTORI32@@B			; g_XMXorHenD3
PUBLIC	?g_XMXorDHen3@@3UXMVECTORI32@@B			; g_XMXorDHen3
PUBLIC	?g_XMMaskIco4@@3UXMVECTORI32@@B			; g_XMMaskIco4
PUBLIC	?g_XMXorXIco4@@3UXMVECTORI32@@B			; g_XMXorXIco4
PUBLIC	?g_XMXorIco4@@3UXMVECTORI32@@B			; g_XMXorIco4
PUBLIC	?g_XMAddXIco4@@3UXMVECTORF32@@B			; g_XMAddXIco4
PUBLIC	?g_XMAddUIco4@@3UXMVECTORF32@@B			; g_XMAddUIco4
PUBLIC	?g_XMAddIco4@@3UXMVECTORF32@@B			; g_XMAddIco4
PUBLIC	?g_XMMulIco4@@3UXMVECTORF32@@B			; g_XMMulIco4
PUBLIC	?g_XMMaskDec4@@3UXMVECTORI32@@B			; g_XMMaskDec4
PUBLIC	?g_XMXorDec4@@3UXMVECTORI32@@B			; g_XMXorDec4
PUBLIC	?g_XMAddUDec4@@3UXMVECTORF32@@B			; g_XMAddUDec4
PUBLIC	?g_XMAddDec4@@3UXMVECTORF32@@B			; g_XMAddDec4
PUBLIC	?g_XMMulDec4@@3UXMVECTORF32@@B			; g_XMMulDec4
PUBLIC	?g_XMMaskByte4@@3UXMVECTORI32@@B		; g_XMMaskByte4
PUBLIC	?g_XMXorByte4@@3UXMVECTORI32@@B			; g_XMXorByte4
PUBLIC	?g_XMAddByte4@@3UXMVECTORF32@@B			; g_XMAddByte4
PUBLIC	?g_XMFixUnsigned@@3UXMVECTORF32@@B		; g_XMFixUnsigned
PUBLIC	?g_XMMaxInt@@3UXMVECTORF32@@B			; g_XMMaxInt
PUBLIC	?g_XMMaxUInt@@3UXMVECTORF32@@B			; g_XMMaxUInt
PUBLIC	?g_XMUnsignedFix@@3UXMVECTORF32@@B		; g_XMUnsignedFix
PUBLIC	?g_hDC@@3PAU_XUIDC@@A				; g_hDC
PUBLIC	?g_hFont@@3PAU_XUIFONT@@A			; g_hFont
PUBLIC	?g_pD3D@@3PAUDirect3D@@A			; g_pD3D
PUBLIC	?g_pDevice@@3PAUD3DDevice@@A			; g_pDevice
PUBLIC	?g_d3dpp@@3U_D3DPRESENT_PARAMETERS_@@A		; g_d3dpp
PUBLIC	?g_fXuiRenderInitialized@@3_NA			; g_fXuiRenderInitialized
PUBLIC	?g_fXuiInitialized@@3_NA			; g_fXuiInitialized
	.bss
?g_hDC@@3PAU_XUIDC@@A DD 01H DUP (?)			; g_hDC
?g_hFont@@3PAU_XUIFONT@@A DD 01H DUP (?)		; g_hFont
?g_pD3D@@3PAUDirect3D@@A DD 01H DUP (?)			; g_pD3D
?g_pDevice@@3PAUD3DDevice@@A DD 01H DUP (?)		; g_pDevice
?g_d3dpp@@3U_D3DPRESENT_PARAMETERS_@@A DB 07cH DUP (?)	; g_d3dpp
?g_fXuiRenderInitialized@@3_NA DB 01H DUP (?)		; g_fXuiRenderInitialized
	ALIGN	4

?g_fXuiInitialized@@3_NA DB 01H DUP (?)			; g_fXuiInitialized
;	COMDAT ?g_XMUnsignedFix@@3UXMVECTORF32@@B
.rdata	SEGMENT
?g_XMUnsignedFix@@3UXMVECTORF32@@B DD 04f000000r ; 2.14748e+009 ; g_XMUnsignedFix
	DD	04f000000r			; 2.14748e+009
	DD	04f000000r			; 2.14748e+009
	DD	04f000000r			; 2.14748e+009
;	COMDAT ?g_XMMaxUInt@@3UXMVECTORF32@@B
.rdata	SEGMENT
?g_XMMaxUInt@@3UXMVECTORF32@@B DD 04f7fffffr	; 4.29497e+009 ; g_XMMaxUInt
	DD	04f7fffffr			; 4.29497e+009
	DD	04f7fffffr			; 4.29497e+009
	DD	04f7fffffr			; 4.29497e+009
;	COMDAT ?g_XMMaxInt@@3UXMVECTORF32@@B
.rdata	SEGMENT
?g_XMMaxInt@@3UXMVECTORF32@@B DD 04effffffr	; 2.14748e+009 ; g_XMMaxInt
	DD	04effffffr			; 2.14748e+009
	DD	04effffffr			; 2.14748e+009
	DD	04effffffr			; 2.14748e+009
;	COMDAT ?g_XMFixUnsigned@@3UXMVECTORF32@@B
.rdata	SEGMENT
?g_XMFixUnsigned@@3UXMVECTORF32@@B DD 04f000000r ; 2.14748e+009 ; g_XMFixUnsigned
	DD	04f000000r			; 2.14748e+009
	DD	04f000000r			; 2.14748e+009
	DD	04f000000r			; 2.14748e+009
;	COMDAT ?g_XMAddByte4@@3UXMVECTORF32@@B
.rdata	SEGMENT
?g_XMAddByte4@@3UXMVECTORF32@@B DD 0c3000000r	; -128	; g_XMAddByte4
	DD	0c7000000r			; -32768
	DD	0cb000000r			; -8.38861e+006
	DD	000000000r			; 0
;	COMDAT ?g_XMXorByte4@@3UXMVECTORI32@@B
.rdata	SEGMENT
?g_XMXorByte4@@3UXMVECTORI32@@B DD 080H			; g_XMXorByte4
	DD	08000H
	DD	0800000H
	DD	00H
;	COMDAT ?g_XMMaskByte4@@3UXMVECTORI32@@B
.rdata	SEGMENT
?g_XMMaskByte4@@3UXMVECTORI32@@B DD 0ffH		; g_XMMaskByte4
	DD	0ff00H
	DD	0ff0000H
	DD	0ff000000H
;	COMDAT ?g_XMMulDec4@@3UXMVECTORF32@@B
.rdata	SEGMENT
?g_XMMulDec4@@3UXMVECTORF32@@B DD 03f800000r	; 1	; g_XMMulDec4
	DD	03a800000r			; 0.000976563
	DD	035800000r			; 9.53674e-007
	DD	030800000r			; 9.31323e-010
;	COMDAT ?g_XMAddDec4@@3UXMVECTORF32@@B
.rdata	SEGMENT
?g_XMAddDec4@@3UXMVECTORF32@@B DD 0c4000000r	; -512	; g_XMAddDec4
	DD	0c9000000r			; -524288
	DD	0ce000000r			; -5.36871e+008
	DD	000000000r			; 0
;	COMDAT ?g_XMAddUDec4@@3UXMVECTORF32@@B
.rdata	SEGMENT
?g_XMAddUDec4@@3UXMVECTORF32@@B DD 000000000r	; 0	; g_XMAddUDec4
	DD	000000000r			; 0
	DD	000000000r			; 0
	DD	04f000000r			; 2.14748e+009
;	COMDAT ?g_XMXorDec4@@3UXMVECTORI32@@B
.rdata	SEGMENT
?g_XMXorDec4@@3UXMVECTORI32@@B DD 0200H			; g_XMXorDec4
	DD	080000H
	DD	020000000H
	DD	00H
;	COMDAT ?g_XMMaskDec4@@3UXMVECTORI32@@B
.rdata	SEGMENT
?g_XMMaskDec4@@3UXMVECTORI32@@B DD 03ffH		; g_XMMaskDec4
	DD	0ffc00H
	DD	03ff00000H
	DD	0c0000000H
;	COMDAT ?g_XMMulIco4@@3UXMVECTORF32@@B
.rdata	SEGMENT
?g_XMMulIco4@@3UXMVECTORF32@@B DD 03f800000r	; 1	; g_XMMulIco4
	DD	039800000r			; 0.000244141
	DD	03f800000r			; 1
	DD	031800000r			; 3.72529e-009
;	COMDAT ?g_XMAddIco4@@3UXMVECTORF32@@B
.rdata	SEGMENT
?g_XMAddIco4@@3UXMVECTORF32@@B DD 0c9000000r	; -524288 ; g_XMAddIco4
	DD	000000000r			; 0
	DD	0c9000000r			; -524288
	DD	000000000r			; 0
;	COMDAT ?g_XMAddUIco4@@3UXMVECTORF32@@B
.rdata	SEGMENT
?g_XMAddUIco4@@3UXMVECTORF32@@B DD 000000000r	; 0	; g_XMAddUIco4
	DD	04f000000r			; 2.14748e+009
	DD	000000000r			; 0
	DD	04f000000r			; 2.14748e+009
;	COMDAT ?g_XMAddXIco4@@3UXMVECTORF32@@B
.rdata	SEGMENT
?g_XMAddXIco4@@3UXMVECTORF32@@B DD 0c9000000r	; -524288 ; g_XMAddXIco4
	DD	000000000r			; 0
	DD	0c9000000r			; -524288
	DD	04f000000r			; 2.14748e+009
;	COMDAT ?g_XMXorIco4@@3UXMVECTORI32@@B
.rdata	SEGMENT
?g_XMXorIco4@@3UXMVECTORI32@@B DD 080000H		; g_XMXorIco4
	DD	00H
	DD	080000H
	DD	00H
;	COMDAT ?g_XMXorXIco4@@3UXMVECTORI32@@B
.rdata	SEGMENT
?g_XMXorXIco4@@3UXMVECTORI32@@B DD 080000H		; g_XMXorXIco4
	DD	00H
	DD	080000H
	DD	080000000H
;	COMDAT ?g_XMMaskIco4@@3UXMVECTORI32@@B
.rdata	SEGMENT
?g_XMMaskIco4@@3UXMVECTORI32@@B DD 0fffffH		; g_XMMaskIco4
	DD	0fffff000H
	DD	0fffffH
	DD	0f0000000H
;	COMDAT ?g_XMXorDHen3@@3UXMVECTORI32@@B
.rdata	SEGMENT
?g_XMXorDHen3@@3UXMVECTORI32@@B DD 0200H		; g_XMXorDHen3
	DD	0100000H
	DD	00H
	DD	00H
;	COMDAT ?g_XMXorHenD3@@3UXMVECTORI32@@B
.rdata	SEGMENT
?g_XMXorHenD3@@3UXMVECTORI32@@B DD 0400H		; g_XMXorHenD3
	DD	0200000H
	DD	00H
	DD	00H
;	COMDAT ?g_XMMulDHen3@@3UXMVECTORF32@@B
.rdata	SEGMENT
?g_XMMulDHen3@@3UXMVECTORF32@@B DD 03f800000r	; 1	; g_XMMulDHen3
	DD	03a800000r			; 0.000976563
	DD	035000000r			; 4.76837e-007
	DD	000000000r			; 0
;	COMDAT ?g_XMMulHenD3@@3UXMVECTORF32@@B
.rdata	SEGMENT
?g_XMMulHenD3@@3UXMVECTORF32@@B DD 03f800000r	; 1	; g_XMMulHenD3
	DD	03a000000r			; 0.000488281
	DD	034800000r			; 2.38419e-007
	DD	000000000r			; 0
;	COMDAT ?g_XMAddDHen3@@3UXMVECTORF32@@B
.rdata	SEGMENT
?g_XMAddDHen3@@3UXMVECTORF32@@B DD 0c4000000r	; -512	; g_XMAddDHen3
	DD	0c9800000r			; -1.04858e+006
	DD	000000000r			; 0
	DD	000000000r			; 0
;	COMDAT ?g_XMAddHenD3@@3UXMVECTORF32@@B
.rdata	SEGMENT
?g_XMAddHenD3@@3UXMVECTORF32@@B DD 0c4800000r	; -1024	; g_XMAddHenD3
	DD	0ca000000r			; -2.09715e+006
	DD	000000000r			; 0
	DD	000000000r			; 0
;	COMDAT ?g_XMAddUHenD3@@3UXMVECTORF32@@B
.rdata	SEGMENT
?g_XMAddUHenD3@@3UXMVECTORF32@@B DD 000000000r	; 0	; g_XMAddUHenD3
	DD	000000000r			; 0
	DD	04f000000r			; 2.14748e+009
	DD	000000000r			; 0
;	COMDAT ?g_XMMaskDHen3@@3UXMVECTORI32@@B
.rdata	SEGMENT
?g_XMMaskDHen3@@3UXMVECTORI32@@B DD 03ffH		; g_XMMaskDHen3
	DD	01ffc00H
	DD	0ffe00000H
	DD	00H
;	COMDAT ?g_XMMaskHenD3@@3UXMVECTORI32@@B
.rdata	SEGMENT
?g_XMMaskHenD3@@3UXMVECTORI32@@B DD 07ffH		; g_XMMaskHenD3
	DD	03ff800H
	DD	0ffc00000H
	DD	00H
;	COMDAT ?g_XMFlipYW@@3UXMVECTORI32@@B
.rdata	SEGMENT
?g_XMFlipYW@@3UXMVECTORI32@@B DD 00H			; g_XMFlipYW
	DD	080000000H
	DD	00H
	DD	080000000H
;	COMDAT ?g_XMFlipZW@@3UXMVECTORI32@@B
.rdata	SEGMENT
?g_XMFlipZW@@3UXMVECTORI32@@B DD 00H			; g_XMFlipZW
	DD	00H
	DD	080000000H
	DD	080000000H
;	COMDAT ?g_XMFlipYZ@@3UXMVECTORI32@@B
.rdata	SEGMENT
?g_XMFlipYZ@@3UXMVECTORI32@@B DD 00H			; g_XMFlipYZ
	DD	080000000H
	DD	080000000H
	DD	00H
;	COMDAT ?g_XMFlipW@@3UXMVECTORI32@@B
.rdata	SEGMENT
?g_XMFlipW@@3UXMVECTORI32@@B DD 00H			; g_XMFlipW
	DD	00H
	DD	00H
	DD	080000000H
;	COMDAT ?g_XMFlipZ@@3UXMVECTORI32@@B
.rdata	SEGMENT
?g_XMFlipZ@@3UXMVECTORI32@@B DD 00H			; g_XMFlipZ
	DD	00H
	DD	080000000H
	DD	00H
;	COMDAT ?g_XMFlipY@@3UXMVECTORI32@@B
.rdata	SEGMENT
?g_XMFlipY@@3UXMVECTORI32@@B DD 00H			; g_XMFlipY
	DD	080000000H
	DD	00H
	DD	00H
;	COMDAT ?g_XMFixupY16W16@@3UXMVECTORF32@@B
.rdata	SEGMENT
?g_XMFixupY16W16@@3UXMVECTORF32@@B DD 03f800000r ; 1	; g_XMFixupY16W16
	DD	03f800000r			; 1
	DD	037800000r			; 1.52588e-005
	DD	037800000r			; 1.52588e-005
;	COMDAT ?g_XMFixupY16@@3UXMVECTORF32@@B
.rdata	SEGMENT
?g_XMFixupY16@@3UXMVECTORF32@@B DD 03f800000r	; 1	; g_XMFixupY16
	DD	037800000r			; 1.52588e-005
	DD	000000000r			; 0
	DD	000000000r			; 0
;	COMDAT ?g_XMPermute0Z0W1Z1W@@3UXMVECTORI32@@B
.rdata	SEGMENT
?g_XMPermute0Z0W1Z1W@@3UXMVECTORI32@@B DD 08090a0bH	; g_XMPermute0Z0W1Z1W
	DD	0c0d0e0fH
	DD	018191a1bH
	DD	01c1d1e1fH
;	COMDAT ?g_XMPermute0X0Y1X1Y@@3UXMVECTORI32@@B
.rdata	SEGMENT
?g_XMPermute0X0Y1X1Y@@3UXMVECTORI32@@B DD 010203H	; g_XMPermute0X0Y1X1Y
	DD	04050607H
	DD	010111213H
	DD	014151617H
;	COMDAT ?g_XMSwizzleZXYW@@3UXMVECTORI32@@B
.rdata	SEGMENT
?g_XMSwizzleZXYW@@3UXMVECTORI32@@B DD 08090a0bH		; g_XMSwizzleZXYW
	DD	010203H
	DD	04050607H
	DD	0c0d0e0fH
;	COMDAT ?g_XMSwizzleYZXW@@3UXMVECTORI32@@B
.rdata	SEGMENT
?g_XMSwizzleYZXW@@3UXMVECTORI32@@B DD 04050607H		; g_XMSwizzleYZXW
	DD	08090a0bH
	DD	010203H
	DD	0c0d0e0fH
;	COMDAT ?g_XMSwizzleYXZW@@3UXMVECTORI32@@B
.rdata	SEGMENT
?g_XMSwizzleYXZW@@3UXMVECTORI32@@B DD 04050607H		; g_XMSwizzleYXZW
	DD	010203H
	DD	08090a0bH
	DD	0c0d0e0fH
;	COMDAT ?g_XMSwizzleXYZX@@3UXMVECTORI32@@B
.rdata	SEGMENT
?g_XMSwizzleXYZX@@3UXMVECTORI32@@B DD 010203H		; g_XMSwizzleXYZX
	DD	04050607H
	DD	08090a0bH
	DD	010203H
;	COMDAT ?g_XMSwizzleXYXY@@3UXMVECTORI32@@B
.rdata	SEGMENT
?g_XMSwizzleXYXY@@3UXMVECTORI32@@B DD 010203H		; g_XMSwizzleXYXY
	DD	04050607H
	DD	010203H
	DD	04050607H
;	COMDAT ?g_XMSelect1110@@3UXMVECTORI32@@B
.rdata	SEGMENT
?g_XMSelect1110@@3UXMVECTORI32@@B DD 0ffffffffH		; g_XMSelect1110
	DD	0ffffffffH
	DD	0ffffffffH
	DD	00H
;	COMDAT ?g_XMSelect1100@@3UXMVECTORI32@@B
.rdata	SEGMENT
?g_XMSelect1100@@3UXMVECTORI32@@B DD 0ffffffffH		; g_XMSelect1100
	DD	0ffffffffH
	DD	00H
	DD	00H
;	COMDAT ?g_XMSelect1000@@3UXMVECTORI32@@B
.rdata	SEGMENT
?g_XMSelect1000@@3UXMVECTORI32@@B DD 0ffffffffH		; g_XMSelect1000
	DD	00H
	DD	00H
	DD	00H
;	COMDAT ?g_XMOneHalfMinusEpsilon@@3UXMVECTORI32@@B
.rdata	SEGMENT
?g_XMOneHalfMinusEpsilon@@3UXMVECTORI32@@B DD 03efffffdH ; g_XMOneHalfMinusEpsilon
	DD	03efffffdH
	DD	03efffffdH
	DD	03efffffdH
;	COMDAT ?g_XMSelect1010@@3UXMVECTORI32@@B
.rdata	SEGMENT
?g_XMSelect1010@@3UXMVECTORI32@@B DD 0ffffffffH		; g_XMSelect1010
	DD	00H
	DD	0ffffffffH
	DD	00H
;	COMDAT ?g_XMSelect0101@@3UXMVECTORI32@@B
.rdata	SEGMENT
?g_XMSelect0101@@3UXMVECTORI32@@B DD 00H		; g_XMSelect0101
	DD	0ffffffffH
	DD	00H
	DD	0ffffffffH
;	COMDAT ?g_XMNegateW@@3UXMVECTORF32@@B
.rdata	SEGMENT
?g_XMNegateW@@3UXMVECTORF32@@B DD 03f800000r	; 1	; g_XMNegateW
	DD	03f800000r			; 1
	DD	03f800000r			; 1
	DD	0bf800000r			; -1
;	COMDAT ?g_XMNegateZ@@3UXMVECTORF32@@B
.rdata	SEGMENT
?g_XMNegateZ@@3UXMVECTORF32@@B DD 03f800000r	; 1	; g_XMNegateZ
	DD	03f800000r			; 1
	DD	0bf800000r			; -1
	DD	03f800000r			; 1
;	COMDAT ?g_XMNegateY@@3UXMVECTORF32@@B
.rdata	SEGMENT
?g_XMNegateY@@3UXMVECTORF32@@B DD 03f800000r	; 1	; g_XMNegateY
	DD	0bf800000r			; -1
	DD	03f800000r			; 1
	DD	03f800000r			; 1
;	COMDAT ?g_XMNegateX@@3UXMVECTORF32@@B
.rdata	SEGMENT
?g_XMNegateX@@3UXMVECTORF32@@B DD 0bf800000r	; -1	; g_XMNegateX
	DD	03f800000r			; 1
	DD	03f800000r			; 1
	DD	03f800000r			; 1
;	COMDAT ?g_XMMaskByte@@3UXMVECTORI32@@B
.rdata	SEGMENT
?g_XMMaskByte@@3UXMVECTORI32@@B DD 0ffH			; g_XMMaskByte
	DD	0ffH
	DD	0ffH
	DD	0ffH
;	COMDAT ?g_XMNoFraction@@3UXMVECTORF32@@B
.rdata	SEGMENT
?g_XMNoFraction@@3UXMVECTORF32@@B DD 04b000000r	; 8.38861e+006 ; g_XMNoFraction
	DD	04b000000r			; 8.38861e+006
	DD	04b000000r			; 8.38861e+006
	DD	04b000000r			; 8.38861e+006
;	COMDAT ?g_XMNormalizeX16Y16Z16W16@@3UXMVECTORF32@@B
.rdata	SEGMENT
?g_XMNormalizeX16Y16Z16W16@@3UXMVECTORF32@@B DD 038000100r ; 3.05185e-005 ; g_XMNormalizeX16Y16Z16W16
	DD	038000100r			; 3.05185e-005
	DD	030000100r			; 4.65675e-010
	DD	030000100r			; 4.65675e-010
;	COMDAT ?g_XMFixX16Y16Z16W16@@3UXMVECTORF32@@B
.rdata	SEGMENT
?g_XMFixX16Y16Z16W16@@3UXMVECTORF32@@B DD 0c7000000r ; -32768 ; g_XMFixX16Y16Z16W16
	DD	0c7000000r			; -32768
	DD	000000000r			; 0
	DD	000000000r			; 0
;	COMDAT ?g_XMFlipX16Y16Z16W16@@3UXMVECTORI32@@B
.rdata	SEGMENT
?g_XMFlipX16Y16Z16W16@@3UXMVECTORI32@@B DD 08000H	; g_XMFlipX16Y16Z16W16
	DD	08000H
	DD	00H
	DD	00H
;	COMDAT ?g_XMMaskX16Y16Z16W16@@3UXMVECTORI32@@B
.rdata	SEGMENT
?g_XMMaskX16Y16Z16W16@@3UXMVECTORI32@@B DD 0ffffH	; g_XMMaskX16Y16Z16W16
	DD	0ffffH
	DD	0ffff0000H
	DD	0ffff0000H
;	COMDAT ?g_XMNormalizeX16Y16@@3UXMVECTORF32@@B
.rdata	SEGMENT
?g_XMNormalizeX16Y16@@3UXMVECTORF32@@B DD 038000100r ; 3.05185e-005 ; g_XMNormalizeX16Y16
	DD	030000100r			; 4.65675e-010
	DD	000000000r			; 0
	DD	000000000r			; 0
;	COMDAT ?g_XMFixX16Y16@@3UXMVECTORF32@@B
.rdata	SEGMENT
?g_XMFixX16Y16@@3UXMVECTORF32@@B DD 0c7000000r	; -32768 ; g_XMFixX16Y16
	DD	000000000r			; 0
	DD	000000000r			; 0
	DD	000000000r			; 0
;	COMDAT ?g_XMFlipX16Y16@@3UXMVECTORI32@@B
.rdata	SEGMENT
?g_XMFlipX16Y16@@3UXMVECTORI32@@B DD 08000H		; g_XMFlipX16Y16
	DD	00H
	DD	00H
	DD	00H
;	COMDAT ?g_XMMaskX16Y16@@3UXMVECTORI32@@B
.rdata	SEGMENT
?g_XMMaskX16Y16@@3UXMVECTORI32@@B DD 0ffffH		; g_XMMaskX16Y16
	DD	0ffff0000H
	DD	00H
	DD	00H
;	COMDAT ?g_XMNormalizeA2B10G10R10@@3UXMVECTORF32@@B
.rdata	SEGMENT
?g_XMNormalizeA2B10G10R10@@3UXMVECTORF32@@B DD 03b004020r ; 0.00195695 ; g_XMNormalizeA2B10G10R10
	DD	036004020r			; 1.91108e-006
	DD	031004020r			; 1.86629e-009
	DD	02faaaaabr			; 3.10441e-010
;	COMDAT ?g_XMFixAA2B10G10R10@@3UXMVECTORF32@@B
.rdata	SEGMENT
?g_XMFixAA2B10G10R10@@3UXMVECTORF32@@B DD 0c4000000r ; -512 ; g_XMFixAA2B10G10R10
	DD	0c9000000r			; -524288
	DD	0ce000000r			; -5.36871e+008
	DD	04f000000r			; 2.14748e+009
;	COMDAT ?g_XMFlipA2B10G10R10@@3UXMVECTORI32@@B
.rdata	SEGMENT
?g_XMFlipA2B10G10R10@@3UXMVECTORI32@@B DD 0200H		; g_XMFlipA2B10G10R10
	DD	080000H
	DD	020000000H
	DD	080000000H
;	COMDAT ?g_XMMaskA2B10G10R10@@3UXMVECTORI32@@B
.rdata	SEGMENT
?g_XMMaskA2B10G10R10@@3UXMVECTORI32@@B DD 03ffH		; g_XMMaskA2B10G10R10
	DD	0ffc00H
	DD	03ff00000H
	DD	0c0000000H
;	COMDAT ?g_XMNormalizeA8R8G8B8@@3UXMVECTORF32@@B
.rdata	SEGMENT
?g_XMNormalizeA8R8G8B8@@3UXMVECTORF32@@B DD 033808081r ; 5.98384e-008 ; g_XMNormalizeA8R8G8B8
	DD	037808081r			; 1.53186e-005
	DD	03b808081r			; 0.00392157
	DD	02f808081r			; 2.33744e-010
;	COMDAT ?g_XMFixAA8R8G8B8@@3UXMVECTORF32@@B
.rdata	SEGMENT
?g_XMFixAA8R8G8B8@@3UXMVECTORF32@@B DD 000000000r ; 0	; g_XMFixAA8R8G8B8
	DD	000000000r			; 0
	DD	000000000r			; 0
	DD	04f000000r			; 2.14748e+009
;	COMDAT ?g_XMFlipA8R8G8B8@@3UXMVECTORI32@@B
.rdata	SEGMENT
?g_XMFlipA8R8G8B8@@3UXMVECTORI32@@B DD 00H		; g_XMFlipA8R8G8B8
	DD	00H
	DD	00H
	DD	080000000H
;	COMDAT ?g_XMMaskA8R8G8B8@@3UXMVECTORI32@@B
.rdata	SEGMENT
?g_XMMaskA8R8G8B8@@3UXMVECTORI32@@B DD 0ff0000H		; g_XMMaskA8R8G8B8
	DD	0ff00H
	DD	0ffH
	DD	0ff000000H
;	COMDAT ?g_XMNegOneMask@@3UXMVECTORI32@@B
.rdata	SEGMENT
?g_XMNegOneMask@@3UXMVECTORI32@@B DD 0ffffffffH		; g_XMNegOneMask
	DD	0ffffffffH
	DD	0ffffffffH
	DD	0ffffffffH
;	COMDAT ?g_XMFltMax@@3UXMVECTORI32@@B
.rdata	SEGMENT
?g_XMFltMax@@3UXMVECTORI32@@B DD 07f7fffffH		; g_XMFltMax
	DD	07f7fffffH
	DD	07f7fffffH
	DD	07f7fffffH
;	COMDAT ?g_XMFltMin@@3UXMVECTORI32@@B
.rdata	SEGMENT
?g_XMFltMin@@3UXMVECTORI32@@B DD 0800000H		; g_XMFltMin
	DD	0800000H
	DD	0800000H
	DD	0800000H
;	COMDAT ?g_XMAbsMask@@3UXMVECTORI32@@B
.rdata	SEGMENT
?g_XMAbsMask@@3UXMVECTORI32@@B DD 07fffffffH		; g_XMAbsMask
	DD	07fffffffH
	DD	07fffffffH
	DD	07fffffffH
;	COMDAT ?g_XMQNaNTest@@3UXMVECTORI32@@B
.rdata	SEGMENT
?g_XMQNaNTest@@3UXMVECTORI32@@B DD 07fffffH		; g_XMQNaNTest
	DD	07fffffH
	DD	07fffffH
	DD	07fffffH
;	COMDAT ?g_XMQNaN@@3UXMVECTORI32@@B
.rdata	SEGMENT
?g_XMQNaN@@3UXMVECTORI32@@B DD 07fc00000H		; g_XMQNaN
	DD	07fc00000H
	DD	07fc00000H
	DD	07fc00000H
;	COMDAT ?g_XMInfinity@@3UXMVECTORI32@@B
.rdata	SEGMENT
?g_XMInfinity@@3UXMVECTORI32@@B DD 07f800000H		; g_XMInfinity
	DD	07f800000H
	DD	07f800000H
	DD	07f800000H
;	COMDAT ?g_XMEpsilon@@3UXMVECTORF32@@B
.rdata	SEGMENT
?g_XMEpsilon@@3UXMVECTORF32@@B DD 034000000r	; 1.19209e-007 ; g_XMEpsilon
	DD	034000000r			; 1.19209e-007
	DD	034000000r			; 1.19209e-007
	DD	034000000r			; 1.19209e-007
;	COMDAT ?g_XMReciprocalTwoPi@@3UXMVECTORF32@@B
.rdata	SEGMENT
?g_XMReciprocalTwoPi@@3UXMVECTORF32@@B DD 03e22f983r ; 0.159155 ; g_XMReciprocalTwoPi
	DD	03e22f983r			; 0.159155
	DD	03e22f983r			; 0.159155
	DD	03e22f983r			; 0.159155
;	COMDAT ?g_XMTwoPi@@3UXMVECTORF32@@B
.rdata	SEGMENT
?g_XMTwoPi@@3UXMVECTORF32@@B DD 040c90fdbr	; 6.28319 ; g_XMTwoPi
	DD	040c90fdbr			; 6.28319
	DD	040c90fdbr			; 6.28319
	DD	040c90fdbr			; 6.28319
;	COMDAT ?g_XMReciprocalPi@@3UXMVECTORF32@@B
.rdata	SEGMENT
?g_XMReciprocalPi@@3UXMVECTORF32@@B DD 03ea2f983r ; 0.31831 ; g_XMReciprocalPi
	DD	03ea2f983r			; 0.31831
	DD	03ea2f983r			; 0.31831
	DD	03ea2f983r			; 0.31831
;	COMDAT ?g_XMPi@@3UXMVECTORF32@@B
.rdata	SEGMENT
?g_XMPi@@3UXMVECTORF32@@B DD 040490fdbr		; 3.14159 ; g_XMPi
	DD	040490fdbr			; 3.14159
	DD	040490fdbr			; 3.14159
	DD	040490fdbr			; 3.14159
;	COMDAT ?g_XMHalfPi@@3UXMVECTORF32@@B
.rdata	SEGMENT
?g_XMHalfPi@@3UXMVECTORF32@@B DD 03fc90fdbr	; 1.5708 ; g_XMHalfPi
	DD	03fc90fdbr			; 1.5708
	DD	03fc90fdbr			; 1.5708
	DD	03fc90fdbr			; 1.5708
;	COMDAT ?g_XMNegativePi@@3UXMVECTORF32@@B
.rdata	SEGMENT
?g_XMNegativePi@@3UXMVECTORF32@@B DD 0c0490fdbr	; -3.14159 ; g_XMNegativePi
	DD	0c0490fdbr			; -3.14159
	DD	0c0490fdbr			; -3.14159
	DD	0c0490fdbr			; -3.14159
;	COMDAT ?g_XMNegativeTwoPi@@3UXMVECTORF32@@B
.rdata	SEGMENT
?g_XMNegativeTwoPi@@3UXMVECTORF32@@B DD 0c0c90fdbr ; -6.28319 ; g_XMNegativeTwoPi
	DD	0c0c90fdbr			; -6.28319
	DD	0c0c90fdbr			; -6.28319
	DD	0c0c90fdbr			; -6.28319
;	COMDAT ?g_XMNegativeOneHalf@@3UXMVECTORF32@@B
.rdata	SEGMENT
?g_XMNegativeOneHalf@@3UXMVECTORF32@@B DD 0bf000000r ; -0.5 ; g_XMNegativeOneHalf
	DD	0bf000000r			; -0.5
	DD	0bf000000r			; -0.5
	DD	0bf000000r			; -0.5
;	COMDAT ?g_XMOneHalf@@3UXMVECTORF32@@B
.rdata	SEGMENT
?g_XMOneHalf@@3UXMVECTORF32@@B DD 03f000000r	; 0.5	; g_XMOneHalf
	DD	03f000000r			; 0.5
	DD	03f000000r			; 0.5
	DD	03f000000r			; 0.5
;	COMDAT ?g_XMNegativeOne@@3UXMVECTORF32@@B
.rdata	SEGMENT
?g_XMNegativeOne@@3UXMVECTORF32@@B DD 0bf800000r ; -1	; g_XMNegativeOne
	DD	0bf800000r			; -1
	DD	0bf800000r			; -1
	DD	0bf800000r			; -1
;	COMDAT ?g_XMZero@@3UXMVECTORF32@@B
.rdata	SEGMENT
?g_XMZero@@3UXMVECTORF32@@B DD 000000000r	; 0	; g_XMZero
	DD	000000000r			; 0
	DD	000000000r			; 0
	DD	000000000r			; 0
;	COMDAT ?g_XMOne3@@3UXMVECTORF32@@B
.rdata	SEGMENT
?g_XMOne3@@3UXMVECTORF32@@B DD 03f800000r	; 1	; g_XMOne3
	DD	03f800000r			; 1
	DD	03f800000r			; 1
	DD	000000000r			; 0
;	COMDAT ?g_XMOne@@3UXMVECTORF32@@B
.rdata	SEGMENT
?g_XMOne@@3UXMVECTORF32@@B DD 03f800000r	; 1	; g_XMOne
	DD	03f800000r			; 1
	DD	03f800000r			; 1
	DD	03f800000r			; 1
;	COMDAT ?g_XMMaskW@@3UXMVECTORI32@@B
.rdata	SEGMENT
?g_XMMaskW@@3UXMVECTORI32@@B DD 00H			; g_XMMaskW
	DD	00H
	DD	00H
	DD	0ffffffffH
;	COMDAT ?g_XMMaskZ@@3UXMVECTORI32@@B
.rdata	SEGMENT
?g_XMMaskZ@@3UXMVECTORI32@@B DD 00H			; g_XMMaskZ
	DD	00H
	DD	0ffffffffH
	DD	00H
;	COMDAT ?g_XMMaskY@@3UXMVECTORI32@@B
.rdata	SEGMENT
?g_XMMaskY@@3UXMVECTORI32@@B DD 00H			; g_XMMaskY
	DD	0ffffffffH
	DD	00H
	DD	00H
;	COMDAT ?g_XMMaskX@@3UXMVECTORI32@@B
.rdata	SEGMENT
?g_XMMaskX@@3UXMVECTORI32@@B DD 0ffffffffH		; g_XMMaskX
	DD	00H
	DD	00H
	DD	00H
;	COMDAT ?g_XMMask3@@3UXMVECTORI32@@B
.rdata	SEGMENT
?g_XMMask3@@3UXMVECTORI32@@B DD 0ffffffffH		; g_XMMask3
	DD	0ffffffffH
	DD	0ffffffffH
	DD	00H
;	COMDAT ?g_XMNegate3@@3UXMVECTORI32@@B
.rdata	SEGMENT
?g_XMNegate3@@3UXMVECTORI32@@B DD 080000000H		; g_XMNegate3
	DD	080000000H
	DD	080000000H
	DD	00H
;	COMDAT ?g_XMNegativeZero@@3UXMVECTORI32@@B
.rdata	SEGMENT
?g_XMNegativeZero@@3UXMVECTORI32@@B DD 080000000H	; g_XMNegativeZero
	DD	080000000H
	DD	080000000H
	DD	080000000H
;	COMDAT ?g_XMNegIdentityR3@@3UXMVECTORF32@@B
.rdata	SEGMENT
?g_XMNegIdentityR3@@3UXMVECTORF32@@B DD 000000000r ; 0	; g_XMNegIdentityR3
	DD	000000000r			; 0
	DD	000000000r			; 0
	DD	0bf800000r			; -1
;	COMDAT ?g_XMNegIdentityR2@@3UXMVECTORF32@@B
.rdata	SEGMENT
?g_XMNegIdentityR2@@3UXMVECTORF32@@B DD 000000000r ; 0	; g_XMNegIdentityR2
	DD	000000000r			; 0
	DD	0bf800000r			; -1
	DD	000000000r			; 0
;	COMDAT ?g_XMNegIdentityR1@@3UXMVECTORF32@@B
.rdata	SEGMENT
?g_XMNegIdentityR1@@3UXMVECTORF32@@B DD 000000000r ; 0	; g_XMNegIdentityR1
	DD	0bf800000r			; -1
	DD	000000000r			; 0
	DD	000000000r			; 0
;	COMDAT ?g_XMNegIdentityR0@@3UXMVECTORF32@@B
.rdata	SEGMENT
?g_XMNegIdentityR0@@3UXMVECTORF32@@B DD 0bf800000r ; -1	; g_XMNegIdentityR0
	DD	000000000r			; 0
	DD	000000000r			; 0
	DD	000000000r			; 0
;	COMDAT ?g_XMIdentityR3@@3UXMVECTORF32@@B
.rdata	SEGMENT
?g_XMIdentityR3@@3UXMVECTORF32@@B DD 000000000r	; 0	; g_XMIdentityR3
	DD	000000000r			; 0
	DD	000000000r			; 0
	DD	03f800000r			; 1
;	COMDAT ?g_XMIdentityR2@@3UXMVECTORF32@@B
.rdata	SEGMENT
?g_XMIdentityR2@@3UXMVECTORF32@@B DD 000000000r	; 0	; g_XMIdentityR2
	DD	000000000r			; 0
	DD	03f800000r			; 1
	DD	000000000r			; 0
;	COMDAT ?g_XMIdentityR1@@3UXMVECTORF32@@B
.rdata	SEGMENT
?g_XMIdentityR1@@3UXMVECTORF32@@B DD 000000000r	; 0	; g_XMIdentityR1
	DD	03f800000r			; 1
	DD	000000000r			; 0
	DD	000000000r			; 0
;	COMDAT ?g_XMIdentityR0@@3UXMVECTORF32@@B
.rdata	SEGMENT
?g_XMIdentityR0@@3UXMVECTORF32@@B DD 03f800000r	; 1	; g_XMIdentityR0
	DD	000000000r			; 0
	DD	000000000r			; 0
	DD	000000000r			; 0
;	COMDAT ?g_XMPiConstants0@@3UXMVECTORF32@@B
.rdata	SEGMENT
?g_XMPiConstants0@@3UXMVECTORF32@@B DD 040490fdbr ; 3.14159 ; g_XMPiConstants0
	DD	040c90fdbr			; 6.28319
	DD	03ea2f983r			; 0.31831
	DD	03e22f983r			; 0.159155
;	COMDAT ?g_XMASinEstConstants@@3UXMVECTORF32@@B
.rdata	SEGMENT
?g_XMASinEstConstants@@3UXMVECTORF32@@B DD 03f800001r ; 1 ; g_XMASinEstConstants
	DD	03fc90fdbr			; 1.5708
	DD	000000000r			; 0
	DD	000000000r			; 0
;	COMDAT ?g_XMASinEstCoefficients@@3UXMVECTORF32@@B
.rdata	SEGMENT
?g_XMASinEstCoefficients@@3UXMVECTORF32@@B DD 0bfae4ee5r ; -1.36178 ; g_XMASinEstCoefficients
	DD	0401849a5r			; 2.37949
	DD	0bf4ee811r			; -0.808229
	DD	03e8e8fb5r			; 0.27844
;	COMDAT ?g_XMATanEstCoefficients@@3UXMVECTORF32@@B
.rdata	SEGMENT
?g_XMATanEstCoefficients@@3UXMVECTORF32@@B DD 03f44dc79r ; 0.768989 ; g_XMATanEstCoefficients
	DD	03f8d6834r			; 1.10474
	DD	03f5dbe43r			; 0.866184
	DD	03fc90fdbr			; 1.5708
;	COMDAT ?g_XMTanEstCoefficients@@3UXMVECTORF32@@B
.rdata	SEGMENT
?g_XMTanEstCoefficients@@3UXMVECTORF32@@B DD 0401ef9dbr ; 2.484 ; g_XMTanEstCoefficients
	DD	0be482f23r			; -0.195492
	DD	0401de9e6r			; 2.4674
	DD	03ea2f983r			; 0.31831
;	COMDAT ?g_XMCosEstCoefficients@@3UXMVECTORF32@@B
.rdata	SEGMENT
?g_XMCosEstCoefficients@@3UXMVECTORF32@@B DD 03f800000r ; 1 ; g_XMCosEstCoefficients
	DD	0befd9e41r			; -0.495348
	DD	03d1eda81r			; 0.0387826
	DD	0ba72600cr			; -0.000924588
;	COMDAT ?g_XMSinEstCoefficients@@3UXMVECTORF32@@B
.rdata	SEGMENT
?g_XMSinEstCoefficients@@3UXMVECTORF32@@B DD 03f800000r ; 1 ; g_XMSinEstCoefficients
	DD	0be2a84b5r			; -0.166522
	DD	03c0658eer			; 0.00819991
	DD	0b92951der			; -0.000161476
;	COMDAT ?g_XMATanCoefficients2@@3UXMVECTORF32@@B
.rdata	SEGMENT
?g_XMATanCoefficients2@@3UXMVECTORF32@@B DD 03d70f0f1r ; 0.0588235 ; g_XMATanCoefficients2
	DD	03d579436r			; 0.0526316
	DD	03d430c31r			; 0.047619
	DD	03d321643r			; 0.0434783
;	COMDAT ?g_XMATanCoefficients1@@3UXMVECTORF32@@B
.rdata	SEGMENT
?g_XMATanCoefficients1@@3UXMVECTORF32@@B DD 03de38e39r ; 0.111111 ; g_XMATanCoefficients1
	DD	03dba2e8cr			; 0.0909091
	DD	03d9d89d9r			; 0.0769231
	DD	03d888889r			; 0.0666667
;	COMDAT ?g_XMATanCoefficients0@@3UXMVECTORF32@@B
.rdata	SEGMENT
?g_XMATanCoefficients0@@3UXMVECTORF32@@B DD 03f800000r ; 1 ; g_XMATanCoefficients0
	DD	03eaaaaabr			; 0.333333
	DD	03e4ccccdr			; 0.2
	DD	03e124925r			; 0.142857
;	COMDAT ?g_XMASinCoefficients2@@3UXMVECTORF32@@B
.rdata	SEGMENT
?g_XMASinCoefficients2@@3UXMVECTORF32@@B DD 0bfaf4418r ; -1.36927 ; g_XMASinCoefficients2
	DD	0c08f6ad9r			; -4.48179
	DD	03fb58485r			; 1.41811
	DD	040af6ad8r			; 5.48179
;	COMDAT ?g_XMASinCoefficients1@@3UXMVECTORF32@@B
.rdata	SEGMENT
?g_XMASinCoefficients1@@3UXMVECTORF32@@B DD 03f1dd7b6r ; 0.616573 ; g_XMASinCoefficients1
	DD	0408980bdr			; 4.29697
	DD	0bf983f2fr			; -1.18943
	DD	0c0d1360er			; -6.53785
;	COMDAT ?g_XMASinCoefficients0@@3UXMVECTORF32@@B
.rdata	SEGMENT
?g_XMASinCoefficients0@@3UXMVECTORF32@@B DD 0bd6dd42dr ; -0.0580637 ; g_XMASinCoefficients0
	DD	0bed65553r			; -0.41862
	DD	03e663246r			; 0.224801
	DD	0400b1889r			; 2.17337
;	COMDAT ?g_XMTanCoefficients2@@3UXMVECTORF32@@B
.rdata	SEGMENT
?g_XMTanCoefficients2@@3UXMVECTORF32@@B DD 03a1aac12r ; 0.000590027 ; g_XMTanCoefficients2
	DD	0397abeb9r			; 0.000239129
	DD	038cb3f0cr			; 9.69154e-005
	DD	03824bec9r			; 3.92783e-005
;	COMDAT ?g_XMTanCoefficients1@@3UXMVECTORF32@@B
.rdata	SEGMENT
?g_XMTanCoefficients1@@3UXMVECTORF32@@B DD 03cb327a4r ; 0.0218695 ; g_XMTanCoefficients1
	DD	03c11371br			; 0.00886324
	DD	03b6b69e9r			; 0.00359213
	DD	03abed1b3r			; 0.00145583
;	COMDAT ?g_XMTanCoefficients0@@3UXMVECTORF32@@B
.rdata	SEGMENT
?g_XMTanCoefficients0@@3UXMVECTORF32@@B DD 03f800000r ; 1 ; g_XMTanCoefficients0
	DD	03eaaaaabr			; 0.333333
	DD	03e088889r			; 0.133333
	DD	03d5d0dd1r			; 0.0539683
;	COMDAT ?g_XMCosCoefficients2@@3UXMVECTORF32@@B
.rdata	SEGMENT
?g_XMCosCoefficients2@@3UXMVECTORF32@@B DD 029573f9fr ; 4.77948e-014 ; g_XMCosCoefficients2
	DD	0a53413c3r			; -1.56192e-016
	DD	020f2a15dr			; 4.11032e-019
	DD	09c8671cbr			; -8.89679e-022
;	COMDAT ?g_XMCosCoefficients1@@3UXMVECTORF32@@B
.rdata	SEGMENT
?g_XMCosCoefficients1@@3UXMVECTORF32@@B DD 037d00d01r ; 2.48016e-005 ; g_XMCosCoefficients1
	DD	0b493f27er			; -2.75573e-007
	DD	0310f76c8r			; 2.08768e-009
	DD	0ad49cba5r			; -1.14707e-011
;	COMDAT ?g_XMCosCoefficients0@@3UXMVECTORF32@@B
.rdata	SEGMENT
?g_XMCosCoefficients0@@3UXMVECTORF32@@B DD 03f800000r ; 1 ; g_XMCosCoefficients0
	DD	0bf000000r			; -0.5
	DD	03d2aaaabr			; 0.0416667
	DD	0bab60b61r			; -0.00138889
;	COMDAT ?g_XMSinCoefficients2@@3UXMVECTORF32@@B
.rdata	SEGMENT
?g_XMSinCoefficients2@@3UXMVECTORF32@@B DD 0274a963cr ; 2.81146e-015 ; g_XMSinCoefficients2
	DD	0a317a4dar			; -8.22064e-018
	DD	01eb8dc78r			; 1.95729e-020
	DD	09a3b0da1r			; -3.86817e-023
;	COMDAT ?g_XMSinCoefficients1@@3UXMVECTORF32@@B
.rdata	SEGMENT
?g_XMSinCoefficients1@@3UXMVECTORF32@@B DD 03638ef1dr ; 2.75573e-006 ; g_XMSinCoefficients1
	DD	0b2d7322br			; -2.50521e-008
	DD	02f309231r			; 1.6059e-010
	DD	0ab573f9fr			; -7.64716e-013
;	COMDAT ?g_XMSinCoefficients0@@3UXMVECTORF32@@B
.rdata	SEGMENT
?g_XMSinCoefficients0@@3UXMVECTORF32@@B DD 03f800000r ; 1 ; g_XMSinCoefficients0
	DD	0be2aaaabr			; -0.166667
	DD	03c088889r			; 0.00833333
	DD	0b9500d01r			; -0.000198413
;	COMDAT D3DTESSPRIMITIVEVERTEXCOUNT
.rdata	SEGMENT
D3DTESSPRIMITIVEVERTEXCOUNT DD 00H
	DD	00H
	DD	00H
	DD	00H
	DD	02H
	DD	00H
	DD	01H
	DD	01H
	DD	03H
	DD	00H
	DD	01H
	DD	02H
	DD	01H
	DD	02H
	DD	00H
	DD	00H
	DD	00H
	DD	00H
	DD	00H
	DD	00H
	DD	00H
	DD	00H
	DD	00H
	DD	00H
	DD	00H
	DD	00H
	DD	04H
	DD	00H
	DD	00H
	DD	00H
	DD	00H
	DD	00H
	DD	01H
	DD	00H
	DD	01H
	DD	00H
	DD	01H
	DD	00H
;	COMDAT D3DPRIMITIVEVERTEXCOUNT
.rdata	SEGMENT
D3DPRIMITIVEVERTEXCOUNT DD 00H
	DD	00H
	DD	01H
	DD	00H
	DD	02H
	DD	00H
	DD	01H
	DD	01H
	DD	03H
	DD	00H
	DD	01H
	DD	02H
	DD	01H
	DD	02H
	DD	00H
	DD	00H
	DD	03H
	DD	00H
	DD	00H
	DD	00H
	DD	00H
	DD	00H
	DD	00H
	DD	00H
	DD	00H
	DD	00H
	DD	04H
	DD	00H
;	COMDAT __C1_11886
.XBLD$W	SEGMENT
__C1_11886 DW	04331H
	DW	00H
	DW	00H
	DW	00H
	DW	010H
	DW	00H
	DW	02e6eH
	DW	04400H
;	COMDAT __C2_11886
.XBLD$W	SEGMENT
__C2_11886 DB	'C2', 00H, 00H, 00H, 00H, 00H, 00H, 00H, 010H, 00H, 00H, '.'
	DB	'nD', 00H
; Function compile flags: /Ogsu

	.code

Direct3DCreate9	PROC NEAR				; COMDAT

; Begin code for function: Direct3DCreate9
; File c:\program files (x86)\microsoft xbox 360 sdk\include\xbox\d3d9.h
; Line 247
	li           r3,1
	blr
; End code for function: Direct3DCreate9
Direct3DCreate9 ENDP

; Function compile flags: /Ogsu

	.code

Direct3D_Release PROC NEAR				; COMDAT

; Begin code for function: Direct3D_Release
; Line 2214
	li           r3,1
	blr
; End code for function: Direct3D_Release
Direct3D_Release ENDP

PUBLIC	?Release@Direct3D@@SAKXZ			; Direct3D::Release
; Function compile flags: /Ogsu

	.code

?Release@Direct3D@@SAKXZ PROC NEAR			; Direct3D::Release, COMDAT

; Begin code for function: ?Release@Direct3D@@SAKXZ
; Line 2245
	li           r3,1
	blr
; End code for function: ?Release@Direct3D@@SAKXZ
?Release@Direct3D@@SAKXZ ENDP
							; Direct3D::Release
PUBLIC	?CreateDevice@Direct3D@@SAJIW4_D3DDEVTYPE@@PAXKPAU_D3DPRESENT_PARAMETERS_@@PAPAUD3DDevice@@@Z ; Direct3D::CreateDevice
EXTRN	Direct3D_CreateDevice:PROC
; Function compile flags: /Ogsu

	.code

?CreateDevice@Direct3D@@SAJIW4_D3DDEVTYPE@@PAXKPAU_D3DPRESENT_PARAMETERS_@@PAPAUD3DDevice@@@Z PROC NEAR ; Direct3D::CreateDevice, COMDAT

; Begin code for function: ?CreateDevice@Direct3D@@SAJIW4_D3DDEVTYPE@@PAXKPAU_D3DPRESENT_PARAMETERS_@@PAPAUD3DDevice@@@Z
; Line 2254
	b            Direct3D_CreateDevice
; End code for function: ?CreateDevice@Direct3D@@SAJIW4_D3DDEVTYPE@@PAXKPAU_D3DPRESENT_PARAMETERS_@@PAPAUD3DDevice@@@Z
?CreateDevice@Direct3D@@SAJIW4_D3DDEVTYPE@@PAXKPAU_D3DPRESENT_PARAMETERS_@@PAPAUD3DDevice@@@Z ENDP
							; Direct3D::CreateDevice
PUBLIC	?Release@D3DDevice@@QAAKXZ			; D3DDevice::Release
EXTRN	D3DDevice_Release:PROC
; Function compile flags: /Ogsu

	.code

?Release@D3DDevice@@QAAKXZ PROC NEAR			; D3DDevice::Release, COMDAT

; Begin code for function: ?Release@D3DDevice@@QAAKXZ
; Line 3829
	b            D3DDevice_Release
; End code for function: ?Release@D3DDevice@@QAAKXZ
?Release@D3DDevice@@QAAKXZ ENDP
							; D3DDevice::Release
PUBLIC	?Present@D3DDevice@@QAAJPBUtagRECT@@0PAX1@Z	; D3DDevice::Present
EXTRN	D3DDevice_Present:PROC
;	COMDAT .pdata
.pdata	SEGMENT
$T70678	DD	?Present@D3DDevice@@QAAJPBUtagRECT@@0PAX1@Z
	DD	040000903H
; Function compile flags: /Ogsu

	.code

?Present@D3DDevice@@QAAJPBUtagRECT@@0PAX1@Z PROC NEAR	; D3DDevice::Present, COMDAT

; Begin code for function: ?Present@D3DDevice@@QAAJPBUtagRECT@@0PAX1@Z
; Line 3835
	mflr         r12
	stw          r12,-8(r1)
	stwu         r1,-60h(r1)
.endprolog
$M70676:
	bl           D3DDevice_Present
	li           r3,0
	addi         r1,r1,96		; 60h
	lwz          r12,-8(r1)
	mtlr         r12
	blr
$M70677:
; End code for function: ?Present@D3DDevice@@QAAJPBUtagRECT@@0PAX1@Z
?Present@D3DDevice@@QAAJPBUtagRECT@@0PAX1@Z ENDP
							; D3DDevice::Present
PUBLIC	?Clear@D3DDevice@@QAAJKPBU_D3DRECT@@KKMK@Z	; D3DDevice::Clear
EXTRN	D3DDevice_Clear:PROC
EXTRN	_fltused:PROC
;	COMDAT .pdata
.pdata	SEGMENT
$T70685	DD	?Clear@D3DDevice@@QAAJKPBU_D3DRECT@@KKMK@Z
	DD	040000a03H
; Function compile flags: /Ogsu

	.code

?Clear@D3DDevice@@QAAJKPBU_D3DRECT@@KKMK@Z PROC NEAR	; D3DDevice::Clear, COMDAT

; Begin code for function: ?Clear@D3DDevice@@QAAJKPBU_D3DRECT@@KKMK@Z
; Line 3859
	mflr         r12
	stw          r12,-8(r1)
	stwu         r1,-60h(r1)
.endprolog
$M70683:
	li           r10,0
	bl           D3DDevice_Clear
	li           r3,0
	addi         r1,r1,96		; 60h
	lwz          r12,-8(r1)
	mtlr         r12
	blr
$M70684:
; End code for function: ?Clear@D3DDevice@@QAAJKPBU_D3DRECT@@KKMK@Z
?Clear@D3DDevice@@QAAJKPBU_D3DRECT@@KKMK@Z ENDP
							; D3DDevice::Clear
PUBLIC	??0_XMMATRIX@@QAA@XZ				; _XMMATRIX::_XMMATRIX
; Function compile flags: /Ogsu

	.code

??0_XMMATRIX@@QAA@XZ PROC NEAR				; _XMMATRIX::_XMMATRIX, COMDAT

; Begin code for function: ??0_XMMATRIX@@QAA@XZ
; File c:\program files (x86)\microsoft xbox 360 sdk\include\xbox\xnamath.h
; Line 349
	blr
; End code for function: ??0_XMMATRIX@@QAA@XZ
??0_XMMATRIX@@QAA@XZ ENDP
							; _XMMATRIX::_XMMATRIX
PUBLIC	?XMStoreFloat4x4NC@@YAXPAU_XMFLOAT4X4@@U_XMMATRIX@@@Z ; XMStoreFloat4x4NC
;	COMDAT .pdata
; File c:\program files (x86)\microsoft xbox 360 sdk\include\xbox\xnamathconvert.inl
.pdata	SEGMENT
$T70693	DD	?XMStoreFloat4x4NC@@YAXPAU_XMFLOAT4X4@@U_XMMATRIX@@@Z
	DD	040003802H
; Function compile flags: /Ogsu

	.code

?XMStoreFloat4x4NC@@YAXPAU_XMFLOAT4X4@@U_XMMATRIX@@@Z PROC NEAR ; XMStoreFloat4x4NC, COMDAT

; Begin code for function: ?XMStoreFloat4x4NC@@YAXPAU_XMFLOAT4X4@@U_XMMATRIX@@@Z
; Line 9473
	std          r30,-10h(r1)
	std          r31,-8(r1)
.endprolog
$M70691:
; Line 9523
	std          r9,M$+28h(r1)
	addi         r9,r1,M$+20h
	std          r4,M$(r1)
	addi         r11,r1,M$
	std          r6,M$+10h(r1)
	lvsr         vr0,r0,r3
	std          r8,M$+20h(r1)
	addi         r8,r1,M$+30h
	std          r10,M$+30h(r1)
	addi         r10,r1,M$+10h
	std          r7,M$+18h(r1)
	li           r7,4
	std          r5,M$+8(r1)
; Line 9528
	lvx128       vr61,r0,r9
	lvx128       vr63,r0,r11
	vperm128     vr63,vr63,vr63,vr0
	lvx128       vr60,r0,r8
	li           r11,8
	lvx128       vr62,r0,r10
; Line 9531
	vperm128     vr62,vr62,vr62,vr0
	li           r10,12		; 0Ch
	stvewx128    vr63,r0,r3
	li           r9,16		; 10h
	vperm128     vr61,vr61,vr61,vr0
	li           r8,20		; 14h
	stvewx128    vr63,r3,r7
	li           r6,24		; 18h
	stvewx128    vr63,r3,r11
	li           r5,28		; 1Ch
	vperm128     vr60,vr60,vr60,vr0
	li           r4,32		; 20h
	stvewx128    vr63,r3,r10
	li           r31,36		; 24h
	stvewx128    vr62,r3,r9
	li           r30,40		; 28h
	stvewx128    vr62,r3,r8
	li           r7,44		; 2Ch
	stvewx128    vr62,r3,r6
	li           r11,48		; 30h
	stvewx128    vr62,r3,r5
	li           r10,52		; 34h
	stvewx128    vr61,r3,r4
	li           r9,56		; 38h
	stvewx128    vr61,r3,r31
	li           r8,60		; 3Ch
	stvewx128    vr61,r3,r30
	stvewx128    vr61,r3,r7
	stvewx128    vr60,r3,r11
	stvewx128    vr60,r3,r10
	stvewx128    vr60,r3,r9
	stvewx128    vr60,r3,r8
; Line 9533
	ld           r30,-10h(r1)
	ld           r31,-8(r1)
	blr
$M70692:
; End code for function: ?XMStoreFloat4x4NC@@YAXPAU_XMFLOAT4X4@@U_XMMATRIX@@@Z
?XMStoreFloat4x4NC@@YAXPAU_XMFLOAT4X4@@U_XMMATRIX@@@Z ENDP
							; XMStoreFloat4x4NC
PUBLIC	?XMMatrixIdentity@@YA?AU_XMMATRIX@@XZ		; XMMatrixIdentity
; Function compile flags: /Ogsu

	.code

?XMMatrixIdentity@@YA?AU_XMMATRIX@@XZ PROC NEAR		; XMMatrixIdentity, COMDAT

; Begin code for function: ?XMMatrixIdentity@@YA?AU_XMMATRIX@@XZ
; File c:\program files (x86)\microsoft xbox 360 sdk\include\xbox\xnamathmatrix.inl
; Line 1000
	vspltisw128  vr63,0
; Line 1005
	li           r11,16		; 10h
; Line 1006
	li           r10,32		; 20h
; Line 1007
	li           r9,48		; 30h
	vupkd3d128   vr63,vr63,1<NORMSHORT2>
	vpermwi128   vr62,vr63,234		; [3|2|2|2]
	vpermwi128   vr61,vr63,186		; [2|3|2|2]
	vpermwi128   vr60,vr63,174		; [2|2|3|2]
	vpermwi128   vr63,vr63,171		; [2|2|2|3]
	stvx128      vr62,r0,r3
	stvx128      vr61,r3,r11
	stvx128      vr60,r3,r10
	stvx128      vr63,r3,r9
; Line 1011
	blr
; End code for function: ?XMMatrixIdentity@@YA?AU_XMMATRIX@@XZ
?XMMatrixIdentity@@YA?AU_XMMATRIX@@XZ ENDP
							; XMMatrixIdentity
PUBLIC	??4_XMMATRIX@@QAAAAU0@ABU0@@Z			; _XMMATRIX::operator=
; Function compile flags: /Ogsu

	.code

??4_XMMATRIX@@QAAAAU0@ABU0@@Z PROC NEAR			; _XMMATRIX::operator=, COMDAT

; Begin code for function: ??4_XMMATRIX@@QAAAAU0@ABU0@@Z
; Line 3271
	li           r9,16		; 10h
	lvx128       vr63,r0,r4
; Line 3272
	stvx128      vr63,r0,r3
	li           r10,32		; 20h
; Line 3273
	li           r11,48		; 30h
	lvx128       vr63,r4,r9
	stvx128      vr63,r3,r9
	lvx128       vr63,r4,r10
	stvx128      vr63,r3,r10
	lvx128       vr63,r4,r11
	stvx128      vr63,r3,r11
; Line 3275
	blr
; End code for function: ??4_XMMATRIX@@QAAAAU0@ABU0@@Z
??4_XMMATRIX@@QAAAAU0@ABU0@@Z ENDP
							; _XMMATRIX::operator=
PUBLIC	??0D3DXMATRIX@@QAA@XZ				; D3DXMATRIX::D3DXMATRIX
; Function compile flags: /Ogsu

	.code

??0D3DXMATRIX@@QAA@XZ PROC NEAR				; D3DXMATRIX::D3DXMATRIX, COMDAT

; Begin code for function: ??0D3DXMATRIX@@QAA@XZ
; File c:\program files (x86)\microsoft xbox 360 sdk\include\xbox\d3dx9math.h
; Line 328
	blr
; End code for function: ??0D3DXMATRIX@@QAA@XZ
??0D3DXMATRIX@@QAA@XZ ENDP
							; D3DXMATRIX::D3DXMATRIX
PUBLIC	?D3DXMatrixIdentity@@YAPAUD3DXMATRIX@@PAU1@@Z	; D3DXMatrixIdentity
EXTRN	__restgprlr_25:PROC
EXTRN	__savegprlr_25:PROC
;	COMDAT .pdata
; File c:\program files (x86)\microsoft xbox 360 sdk\include\xbox\xnamathconvert.inl
.pdata	SEGMENT
$T70746	DD	?D3DXMatrixIdentity@@YAPAUD3DXMATRIX@@PAU1@@Z
	DD	040002d02H
; Function compile flags: /Ogsu

	.code

?D3DXMatrixIdentity@@YAPAUD3DXMATRIX@@PAU1@@Z PROC NEAR	; D3DXMatrixIdentity, COMDAT

; Begin code for function: ?D3DXMatrixIdentity@@YAPAUD3DXMATRIX@@PAU1@@Z
; File c:\program files (x86)\microsoft xbox 360 sdk\include\xbox\d3dx9math.inl
; Line 2801
	mflr         r12
	bl           __savegprlr_25
.endprolog
$M70744:
; Line 2819
	vspltisw128  vr63,0
; Line 2820
	lvsr         vr0,r0,r3
	li           r11,4
	li           r10,8
	li           r9,12		; 0Ch
	vupkd3d128   vr60,vr63,1<NORMSHORT2>
	li           r8,16		; 10h
	li           r7,20		; 14h
	li           r6,24		; 18h
	li           r5,28		; 1Ch
	vpermwi128   vr63,vr60,234		; [3|2|2|2]
	li           r4,32		; 20h
	vpermwi128   vr62,vr60,186		; [2|3|2|2]
	li           r31,36		; 24h
	vpermwi128   vr61,vr60,174		; [2|2|3|2]
	li           r30,40		; 28h
	vpermwi128   vr60,vr60,171		; [2|2|2|3]
	li           r29,44		; 2Ch
	vperm128     vr63,vr63,vr63,vr0
	li           r28,48		; 30h
	vperm128     vr62,vr62,vr62,vr0
	li           r27,52		; 34h
	vperm128     vr61,vr61,vr61,vr0
	li           r26,56		; 38h
	vperm128     vr60,vr60,vr60,vr0
	li           r25,60		; 3Ch
	stvewx128    vr63,r0,r3
	stvewx128    vr63,r3,r11
	stvewx128    vr63,r3,r10
	stvewx128    vr63,r3,r9
	stvewx128    vr62,r3,r8
	stvewx128    vr62,r3,r7
	stvewx128    vr62,r3,r6
	stvewx128    vr62,r3,r5
	stvewx128    vr61,r3,r4
	stvewx128    vr61,r3,r31
	stvewx128    vr61,r3,r30
	stvewx128    vr61,r3,r29
	stvewx128    vr60,r3,r28
	stvewx128    vr60,r3,r27
	stvewx128    vr60,r3,r26
	stvewx128    vr60,r3,r25
	b            __restgprlr_25
$M70745:
; End code for function: ?D3DXMatrixIdentity@@YAPAUD3DXMATRIX@@PAU1@@Z
?D3DXMatrixIdentity@@YAPAUD3DXMATRIX@@PAU1@@Z ENDP
							; D3DXMatrixIdentity
PUBLIC	??0XUIRect@@QAA@MMMM@Z				; XUIRect::XUIRect
; Function compile flags: /Ogsu

	.code

??0XUIRect@@QAA@MMMM@Z PROC NEAR				; XUIRect::XUIRect, COMDAT

; Begin code for function: ??0XUIRect@@QAA@MMMM@Z
; File c:\program files (x86)\microsoft xbox 360 sdk\include\xbox\xuirender.h
; Line 205
	stfs         fr1,0(r3)
; Line 206
	stfs         fr2,4(r3)
; Line 207
	stfs         fr3,8(r3)
; Line 208
	stfs         fr4,0Ch(r3)
; Line 209
	blr
; End code for function: ??0XUIRect@@QAA@MMMM@Z
??0XUIRect@@QAA@MMMM@Z ENDP
							; XUIRect::XUIRect
PUBLIC	?UninitD3D@@YAXXZ				; UninitD3D
;	COMDAT .pdata
; File c:\program files (x86)\microsoft xbox 360 sdk\include\xbox\d3d9.h
.pdata	SEGMENT
$T70766	DD	?UninitD3D@@YAXXZ
	DD	040001604H
; Function compile flags: /Ogsu

	.code

?UninitD3D@@YAXXZ PROC NEAR				; UninitD3D, COMDAT

; Begin code for function: ?UninitD3D@@YAXXZ
; File c:\users\deadlydata\documents\visual studio 2010\projects\trainer\trainer\d3d.cpp
; Line 99
	mflr         r12
	stw          r12,-8(r1)
	std          r31,-10h(r1)
	stwu         r1,-60h(r1)
.endprolog
$M70764:
; Line 100
	lis          r31,?g_pDevice@@3PAUD3DDevice@@A
	lwz          r3,?g_pDevice@@3PAUD3DDevice@@A(r31)
	cmplwi       cr6,r3,0
	beq          cr6,$LN2@UninitD3D
; Line 102
	bl           D3DDevice_Release
; Line 103
	li           r11,0
	stw          r11,?g_pDevice@@3PAUD3DDevice@@A(r31)
$LN2@UninitD3D:
; Line 106
	lis          r11,?g_pD3D@@3PAUDirect3D@@A
	lwz          r10,?g_pD3D@@3PAUDirect3D@@A(r11)
	cmplwi       cr6,r10,0
	beq          cr6,$LN1@UninitD3D
; Line 109
	li           r10,0
	stw          r10,?g_pD3D@@3PAUDirect3D@@A(r11)
$LN1@UninitD3D:
; Line 111
	addi         r1,r1,96		; 60h
	lwz          r12,-8(r1)
	mtlr         r12
	ld           r31,-10h(r1)
	blr
$M70765:
; End code for function: ?UninitD3D@@YAXXZ
?UninitD3D@@YAXXZ ENDP
							; UninitD3D
PUBLIC	?UninitXui@@YAXXZ				; UninitXui
EXTRN	XuiUninit:PROC
EXTRN	XuiRenderUninit:PROC
EXTRN	XuiRenderDestroyDC:PROC
EXTRN	XuiReleaseFont:PROC
;	COMDAT .pdata
.pdata	SEGMENT
$T70772	DD	?UninitXui@@YAXXZ
	DD	040002504H
; Function compile flags: /Ogsu

	.code

?UninitXui@@YAXXZ PROC NEAR				; UninitXui, COMDAT

; Begin code for function: ?UninitXui@@YAXXZ
; Line 181
	mflr         r12
	stw          r12,-8(r1)
	std          r31,-10h(r1)
	stwu         r1,-60h(r1)
.endprolog
$M70770:
; Line 182
	lis          r31,?g_hFont@@3PAU_XUIFONT@@A
	lwz          r3,?g_hFont@@3PAU_XUIFONT@@A(r31)
	cmplwi       cr6,r3,0
	beq          cr6,$LN4@UninitXui
; Line 184
	bl           XuiReleaseFont
; Line 185
	li           r11,0
	stw          r11,?g_hFont@@3PAU_XUIFONT@@A(r31)
$LN4@UninitXui:
; Line 188
	lis          r31,?g_hDC@@3PAU_XUIDC@@A
	lwz          r3,?g_hDC@@3PAU_XUIDC@@A(r31)
	cmplwi       cr6,r3,0
	beq          cr6,$LN3@UninitXui
; Line 190
	bl           XuiRenderDestroyDC
; Line 191
	li           r11,0
	stw          r11,?g_hDC@@3PAU_XUIDC@@A(r31)
$LN3@UninitXui:
; Line 194
	lis          r31,?g_fXuiRenderInitialized@@3_NA
	lbz          r11,?g_fXuiRenderInitialized@@3_NA(r31)
	cmplwi       r11,0
	beq          $LN2@UninitXui
; Line 196
	bl           XuiRenderUninit
; Line 197
	li           r11,0
	stb          r11,?g_fXuiRenderInitialized@@3_NA(r31)
$LN2@UninitXui:
; Line 200
	lis          r31,?g_fXuiInitialized@@3_NA
	lbz          r11,?g_fXuiInitialized@@3_NA(r31)
	cmplwi       r11,0
	beq          $LN1@UninitXui
; Line 202
	bl           XuiUninit
; Line 203
	li           r11,0
	stb          r11,?g_fXuiInitialized@@3_NA(r31)
$LN1@UninitXui:
; Line 205
	addi         r1,r1,96		; 60h
	lwz          r12,-8(r1)
	mtlr         r12
	ld           r31,-10h(r1)
	blr
$M70771:
; End code for function: ?UninitXui@@YAXXZ
?UninitXui@@YAXXZ ENDP
							; UninitXui
PUBLIC	__real@00000000
PUBLIC	?DrawText@@YAXPAU_XUIDC@@PAU_XUIFONT@@KMMPB_W@Z	; DrawText
EXTRN	XuiDrawText:PROC
EXTRN	XuiSetColorFactor:PROC
EXTRN	XuiSelectFont:PROC
EXTRN	XuiRenderSetTransform:PROC
EXTRN	XuiMeasureText:PROC
EXTRN	__restgprlr_14:PROC
EXTRN	__savegprlr_14:PROC
;	COMDAT .pdata
; File c:\program files (x86)\microsoft xbox 360 sdk\include\xbox\xnamathconvert.inl
.pdata	SEGMENT
$T70859	DD	?DrawText@@YAXPAU_XUIDC@@PAU_XUIFONT@@KMMPB_W@Z
	DD	040008b05H
;	COMDAT __real@00000000
.rdata	SEGMENT
__real@00000000 DD 000000000r			; 0
; Function compile flags: /Ogsu

	.code
tv384 = 80						; size = 4
tv380 = 80						; size = 4
tv386 = 84						; size = 4
tv378 = 84						; size = 4
tv390 = 88						; size = 4
tv370 = 88						; size = 4
tv382 = 92						; size = 4
tv388 = 96						; size = 4
tv394 = 100						; size = 4
tv392 = 100						; size = 4
tv376 = 104						; size = 4
tv372 = 108						; size = 4
tv374 = 112						; size = 4
tv346 = 112						; size = 8
tv337 = 112						; size = 8
clipRect$ = 128						; size = 16
matXForm$ = 144						; size = 64

?DrawText@@YAXPAU_XUIDC@@PAU_XUIFONT@@KMMPB_W@Z	PROC NEAR ; DrawText, COMDAT

; Begin code for function: ?DrawText@@YAXPAU_XUIDC@@PAU_XUIFONT@@KMMPB_W@Z
; File c:\users\deadlydata\documents\visual studio 2010\projects\trainer\trainer\d3d.cpp
; Line 240
	mflr         r12
	bl           __savegprlr_14
	stfd         fr30,-0A8h(r1)
	stfd         fr31,-0A0h(r1)
	stwu         r1,-180h(r1)
.endprolog
$M70857:
; Line 243
	lis          r11,?g_d3dpp@@3U_D3DPRESENT_PARAMETERS_@@A
	stw          r5,6Ch(r1)
	lis          r9,__real@00000000
	stw          r3,58h(r1)
	addi         r6,r11,?g_d3dpp@@3U_D3DPRESENT_PARAMETERS_@@A
	fmr          fr31,fr1
	mr           r31,r4
	fmr          fr30,fr2
	mr           r30,r8
	lwz          r10,?g_d3dpp@@3U_D3DPRESENT_PARAMETERS_@@A(r11)
	addi         r8,r1,clipRect$
	lfs          fr0,__real@00000000(r9)
	li           r7,0
	lwz          r11,4(r6)
	stfs         fr0,clipRect$(r1)		; 128 (80h)
	stfs         fr0,clipRect$+4(r1)		; 132 (84h)
	li           r6,0
	li           r5,-1		; 0FFFFh
	stw          r31,68h(r1)
	std          r10,70h(r1)
	lfd          fr13,70h(r1)
	fcfid        fr13,fr13
	mr           r4,r30
	std          r11,70h(r1)
	lfd          fr12,70h(r1)
	fcfid        fr12,fr12
	mr           r3,r31
	frsp         fr0,fr13
	stw          r30,70h(r1)
	frsp         fr13,fr12
	fsubs        fr0,fr0,fr1
	stfs         fr0,clipRect$+8(r1)		; 136 (88h)
	fsubs        fr0,fr13,fr2
	stfs         fr0,clipRect$+0Ch(r1)		; 140 (8Ch)
	bl           XuiMeasureText
; Line 247
	vspltisw128  vr63,0
	addi         r11,r1,matXForm$
	addi         r10,r1,matXForm$
	addi         r4,r1,matXForm$
	vupkd3d128   vr60,vr63,1<NORMSHORT2>
	addi         r9,r1,matXForm$
	li           r3,56		; 38h
	stw          r10,50h(r1)
	lvsr         vr0,r0,r11
	stw          r4,5Ch(r1)
	lwz          r4,50h(r1)
	addi         r8,r1,matXForm$
	vpermwi128   vr63,vr60,234		; [3|2|2|2]
	stw          r9,54h(r1)
	vpermwi128   vr62,vr60,186		; [2|3|2|2]
	li           r10,4
	vpermwi128   vr61,vr60,174		; [2|2|3|2]
	li           r11,8
	vpermwi128   vr60,vr60,171		; [2|2|2|3]
	addi         r9,r1,matXForm$
	li           r7,12		; 0Ch
	vperm128     vr63,vr63,vr63,vr0
	addi         r6,r1,matXForm$
	vperm128     vr62,vr62,vr62,vr0
	li           r5,16		; 10h
	vperm128     vr61,vr61,vr61,vr0
	addi         r31,r1,matXForm$
	vperm128     vr60,vr60,vr60,vr0
	li           r30,20		; 14h
	stw          r3,50h(r1)
	addi         r29,r1,matXForm$
	li           r28,24		; 18h
	addi         r27,r1,matXForm$
	li           r26,28		; 1Ch
	addi         r25,r1,matXForm$
	li           r24,32		; 20h
	addi         r23,r1,matXForm$
	li           r22,36		; 24h
	addi         r21,r1,matXForm$
	li           r20,40		; 28h
	addi         r19,r1,matXForm$
	li           r18,44		; 2Ch
	addi         r17,r1,matXForm$
	li           r16,48		; 30h
	addi         r15,r1,matXForm$
	li           r14,52		; 34h
	stvewx128    vr63,r0,r8
	lwz          r3,54h(r1)
	addi         r8,r1,matXForm$
	stw          r8,54h(r1)
	li           r8,60		; 3Ch
; Line 250
	stw          r8,60h(r1)
	lwz          r8,58h(r1)
	stw          r4,58h(r1)
	addi         r4,r1,matXForm$
	stw          r4,64h(r1)
	lwz          r4,58h(r1)
	stvewx128    vr63,r4,r10
	stvewx128    vr63,r3,r11
	lwz          r11,5Ch(r1)
	stvewx128    vr63,r9,r7
	lwz          r10,50h(r1)
	stvewx128    vr62,r6,r5
	mr           r3,r8
	stvewx128    vr62,r31,r30
	lwz          r4,64h(r1)
	stvewx128    vr62,r29,r28
	stw          r8,64h(r1)
	stvewx128    vr62,r27,r26
	stvewx128    vr61,r25,r24
	stvewx128    vr61,r23,r22
	stvewx128    vr61,r21,r20
	stvewx128    vr61,r19,r18
	stvewx128    vr60,r17,r16
	stvewx128    vr60,r15,r14
	stvewx128    vr60,r11,r10
	lwz          r11,54h(r1)
	lwz          r10,60h(r1)
	stvewx128    vr60,r11,r10
	stfs         fr31,matXForm$+30h(r1)		; 192 (0C0h)
	stfs         fr30,matXForm$+34h(r1)		; 196 (0C4h)
	bl           XuiRenderSetTransform
; Line 253
	lwz          r31,64h(r1)
	lwz          r4,68h(r1)
	mr           r3,r31
	bl           XuiSelectFont
; Line 254
	mr           r3,r31
	lwz          r4,6Ch(r1)
	bl           XuiSetColorFactor
; Line 257
	addi         r7,r1,clipRect$
	li           r6,0
	lwz          r4,70h(r1)
	li           r5,0
	mr           r3,r31
	bl           XuiDrawText
; Line 258
	addi         r1,r1,384		; 180h
	lfd          fr30,-0A8h(r1)
	lfd          fr31,-0A0h(r1)
	b            __restgprlr_14
$M70858:
; End code for function: ?DrawText@@YAXPAU_XUIDC@@PAU_XUIFONT@@KMMPB_W@Z
?DrawText@@YAXPAU_XUIDC@@PAU_XUIFONT@@KMMPB_W@Z ENDP
							; DrawText
PUBLIC	?InitD3D@@YAJXZ					; InitD3D
EXTRN	memset:PROC
;	COMDAT .pdata
; File c:\program files (x86)\microsoft xbox 360 sdk\include\xbox\d3d9.h
.pdata	SEGMENT
$T70872	DD	?InitD3D@@YAJXZ
	DD	040002f05H
; Function compile flags: /Ogsu

	.code

?InitD3D@@YAJXZ	PROC NEAR				; InitD3D, COMDAT

; Begin code for function: ?InitD3D@@YAJXZ
; File c:\users\deadlydata\documents\visual studio 2010\projects\trainer\trainer\d3d.cpp
; Line 66
	mflr         r12
	stw          r12,-8(r1)
	std          r30,-18h(r1)
	std          r31,-10h(r1)
	stwu         r1,-70h(r1)
.endprolog
$M70870:
; Line 73
	lis          r31,?g_d3dpp@@3U_D3DPRESENT_PARAMETERS_@@A
	lis          r10,?g_pD3D@@3PAUDirect3D@@A
	addi         r30,r31,?g_d3dpp@@3U_D3DPRESENT_PARAMETERS_@@A
	li           r11,1
	mr           r3,r30
	li           r5,124		; 7Ch
	li           r4,0
	stw          r11,?g_pD3D@@3PAUDirect3D@@A(r10)
	bl           memset
; Line 80
	li           r11,1280		; 500h
	lis          r9,6184		; 1828h
	stw          r11,?g_d3dpp@@3U_D3DPRESENT_PARAMETERS_@@A(r31)
	li           r10,720		; 2D0h
	ori          r9,r9,390		; 186h
	li           r11,1
	stw          r10,4(r30)
	stw          r9,8(r30)
	li           r10,0
; Line 81
	stw          r11,0Ch(r30)
	li           r9,1
; Line 82
	li           r11,0
	stw          r10,10h(r30)
	stw          r9,18h(r30)
; Line 84
	lis          r10,?g_pDevice@@3PAUD3DDevice@@A
	stw          r11,34h(r30)
	mr           r7,r30
	addi         r8,r10,?g_pDevice@@3PAUD3DDevice@@A
	li           r6,0
	li           r5,0
	li           r4,1
	li           r3,0
	bl           Direct3D_CreateDevice
	mr.          r31,r3
; Line 85
	bge          $LN1@InitD3D
; Line 87
	bl           ?UninitD3D@@YAXXZ
$LN1@InitD3D:
; Line 90
	mr           r3,r31
; Line 91
	addi         r1,r1,112		; 70h
	lwz          r12,-8(r1)
	mtlr         r12
	ld           r30,-18h(r1)
	ld           r31,-10h(r1)
	blr
$M70871:
; End code for function: ?InitD3D@@YAJXZ
?InitD3D@@YAJXZ ENDP
							; InitD3D
PUBLIC	__real@41900000
PUBLIC	??_C@_1EC@FIKKPBNE@f?$AAi?$AAl?$AAe?$AA?3?$AA?1?$AA?1?$AAg?$AAa?$AAm?$AAe?$AA?3?$AA?1?$AAm?$AAe?$AAd?$AAi?$AAa?$AA?1?$AAx?$AAa?$AAr?$AAi?$AAa?$AAl?$AAu?$AAn?$AAi?$AA?4?$AAt?$AAt?$AAf?$AA@ ; `string'
PUBLIC	??_C@_1CC@DDBCBCAE@A?$AAr?$AAi?$AAa?$AAl?$AA?5?$AAU?$AAn?$AAi?$AAc?$AAo?$AAd?$AAe?$AA?5?$AAM?$AAS?$AA?$AA?$AA@ ; `string'
PUBLIC	?InitXui@@YAJXZ					; InitXui
EXTRN	XuiCreateFont:PROC
EXTRN	XuiRegisterTypeface:PROC
EXTRN	XuiInit:PROC
EXTRN	XuiRenderCreateDC:PROC
EXTRN	XuiRenderInitShared:PROC
EXTRN	XuiD3DXTextureLoader:PROC
;	COMDAT .pdata
.pdata	SEGMENT
$T70880	DD	?InitXui@@YAJXZ
	DD	040004e05H
;	COMDAT __real@41900000
.rdata	SEGMENT
__real@41900000 DD 041900000r			; 18
;	COMDAT ??_C@_1EC@FIKKPBNE@f?$AAi?$AAl?$AAe?$AA?3?$AA?1?$AA?1?$AAg?$AAa?$AAm?$AAe?$AA?3?$AA?1?$AAm?$AAe?$AAd?$AAi?$AAa?$AA?1?$AAx?$AAa?$AAr?$AAi?$AAa?$AAl?$AAu?$AAn?$AAi?$AA?4?$AAt?$AAt?$AAf?$AA@
.rdata	SEGMENT
??_C@_1EC@FIKKPBNE@f?$AAi?$AAl?$AAe?$AA?3?$AA?1?$AA?1?$AAg?$AAa?$AAm?$AAe?$AA?3?$AA?1?$AAm?$AAe?$AAd?$AAi?$AAa?$AA?1?$AAx?$AAa?$AAr?$AAi?$AAa?$AAl?$AAu?$AAn?$AAi?$AA?4?$AAt?$AAt?$AAf?$AA@ DB 00H
	DB	'f', 00H, 'i', 00H, 'l', 00H, 'e', 00H, ':', 00H, '/', 00H, '/'
	DB	00H, 'g', 00H, 'a', 00H, 'm', 00H, 'e', 00H, ':', 00H, '/', 00H
	DB	'm', 00H, 'e', 00H, 'd', 00H, 'i', 00H, 'a', 00H, '/', 00H, 'x'
	DB	00H, 'a', 00H, 'r', 00H, 'i', 00H, 'a', 00H, 'l', 00H, 'u', 00H
	DB	'n', 00H, 'i', 00H, '.', 00H, 't', 00H, 't', 00H, 'f', 00H, 00H ; `string'
;	COMDAT ??_C@_1CC@DDBCBCAE@A?$AAr?$AAi?$AAa?$AAl?$AA?5?$AAU?$AAn?$AAi?$AAc?$AAo?$AAd?$AAe?$AA?5?$AAM?$AAS?$AA?$AA?$AA@
.rdata	SEGMENT
??_C@_1CC@DDBCBCAE@A?$AAr?$AAi?$AAa?$AAl?$AA?5?$AAU?$AAn?$AAi?$AAc?$AAo?$AAd?$AAe?$AA?5?$AAM?$AAS?$AA?$AA?$AA@ DB 00H
	DB	'A', 00H, 'r', 00H, 'i', 00H, 'a', 00H, 'l', 00H, ' ', 00H, 'U'
	DB	00H, 'n', 00H, 'i', 00H, 'c', 00H, 'o', 00H, 'd', 00H, 'e', 00H
	DB	' ', 00H, 'M', 00H, 'S', 00H, 00H		; `string'
; Function compile flags: /Ogsu

	.code
initparams$ = 80					; size = 12
desc$ = 96						; size = 20

?InitXui@@YAJXZ	PROC NEAR				; InitXui, COMDAT

; Begin code for function: ?InitXui@@YAJXZ
; Line 119
	mflr         r12
	stw          r12,-8(r1)
	std          r30,-18h(r1)
	std          r31,-10h(r1)
	stwu         r1,-90h(r1)
.endprolog
$M70878:
; Line 120
	lis          r11,?g_pDevice@@3PAUD3DDevice@@A
	lwz          r3,?g_pDevice@@3PAUD3DDevice@@A(r11)
	cmplwi       cr6,r3,0
	bne          cr6,$LN11@InitXui
; Line 133
	lis          r3,-32768		; 8000h
	ori          r3,r3,16389		; 4005h
	b            $LN12@InitXui
$LN11@InitXui:
; Line 126
	addi         r9,r1,initparams$+4
; Line 133
	addi         r8,r1,desc$+4
	li           r11,0
	addi         r7,r1,initparams$
	stw          r11,initparams$(r1)		; 80 (50h)
; Line 134
	lis          r10,??_C@_1CC@DDBCBCAE@A?$AAr?$AAi?$AAa?$AAl?$AA?5?$AAU?$AAn?$AAi?$AAc?$AAo?$AAd?$AAe?$AA?5?$AAM?$AAS?$AA?$AA?$AA@
	stw          r11,0(r9)
; Line 135
	lis          r6,??_C@_1EC@FIKKPBNE@f?$AAi?$AAl?$AAe?$AA?3?$AA?1?$AA?1?$AAg?$AAa?$AAm?$AAe?$AA?3?$AA?1?$AAm?$AAe?$AAd?$AAi?$AAa?$AA?1?$AAx?$AAa?$AAr?$AAi?$AAa?$AAl?$AAu?$AAn?$AAi?$AA?4?$AAt?$AAt?$AAf?$AA@
	stw          r11,0(r8)
	addi         r30,r10,??_C@_1CC@DDBCBCAE@A?$AAr?$AAi?$AAa?$AAl?$AA?5?$AAU?$AAn?$AAi?$AAc?$AAo?$AAd?$AAe?$AA?5?$AAM?$AAS?$AA?$AA?$AA@
	stw          r11,4(r9)
	stw          r11,4(r8)
	addi         r10,r6,??_C@_1EC@FIKKPBNE@f?$AAi?$AAl?$AAe?$AA?3?$AA?1?$AA?1?$AAg?$AAa?$AAm?$AAe?$AA?3?$AA?1?$AAm?$AAe?$AAd?$AAi?$AAa?$AA?1?$AAx?$AAa?$AAr?$AAi?$AAa?$AAl?$AAu?$AAn?$AAi?$AA?4?$AAt?$AAt?$AAf?$AA@
	stw          r11,8(r8)
	li           r9,12		; 0Ch
; Line 140
	std          r11,0(r7)
	stw          r11,0Ch(r8)
	stw          r11,8(r7)
	lis          r6,XuiD3DXTextureLoader
	stw          r30,desc$(r1)		; 96 (60h)
	lis          r4,?g_d3dpp@@3U_D3DPRESENT_PARAMETERS_@@A
	stw          r10,desc$+4(r1)		; 100 (64h)
	addi         r5,r6,XuiD3DXTextureLoader
	stw          r9,initparams$(r1)		; 80 (50h)
	addi         r4,r4,?g_d3dpp@@3U_D3DPRESENT_PARAMETERS_@@A
	bl           XuiRenderInitShared
	mr.          r31,r3
; Line 141
	blt          $error$68920
; Line 143
	lis          r10,?g_fXuiRenderInitialized@@3_NA
	li           r11,1
; Line 147
	lis          r9,?g_hDC@@3PAU_XUIDC@@A
	addi         r3,r9,?g_hDC@@3PAU_XUIDC@@A
	stb          r11,?g_fXuiRenderInitialized@@3_NA(r10)
	bl           XuiRenderCreateDC
	mr.          r31,r3
; Line 148
	blt          $error$68920
; Line 153
	addi         r3,r1,initparams$
	bl           XuiInit
	mr.          r31,r3
; Line 154
	blt          $error$68920
; Line 156
	lis          r10,?g_fXuiInitialized@@3_NA
	li           r11,1
; Line 159
	li           r4,1
	addi         r3,r1,desc$
	stb          r11,?g_fXuiInitialized@@3_NA(r10)
	bl           XuiRegisterTypeface
	mr.          r31,r3
; Line 160
	blt          $error$68920
; Line 164
	lis          r11,__real@41900000
	lis          r10,?g_hFont@@3PAU_XUIFONT@@A
	mr           r3,r30
	addi         r7,r10,?g_hFont@@3PAU_XUIFONT@@A
	li           r6,0
	li           r5,0
	lfs          fr1,__real@41900000(r11)
	bl           XuiCreateFont
	mr.          r31,r3
; Line 165
	bge          $LN2@InitXui
$error$68920:
; Line 171
	bl           ?UninitXui@@YAXXZ
$LN2@InitXui:
; Line 168
	mr           r3,r31
$LN12@InitXui:
; Line 173
	addi         r1,r1,144		; 90h
	lwz          r12,-8(r1)
	mtlr         r12
	ld           r30,-18h(r1)
	ld           r31,-10h(r1)
	blr
$M70879:
; End code for function: ?InitXui@@YAJXZ
?InitXui@@YAJXZ ENDP
							; InitXui
PUBLIC	??_C@_1BE@PPELJION@S?$AAo?$AAm?$AAe?$AA?5?$AAT?$AAe?$AAx?$AAt?$AA?$AA?$AA@ ; `string'
PUBLIC	__real@43480000
PUBLIC	__real@3f800000
PUBLIC	?RenderScene@@YAXXZ				; RenderScene
EXTRN	XuiRenderPresent:PROC
EXTRN	XuiRenderEnd:PROC
EXTRN	XuiRenderSetViewTransform:PROC
EXTRN	XuiRenderBegin:PROC
;	COMDAT .pdata
; File c:\program files (x86)\microsoft xbox 360 sdk\include\xbox\d3d9.h
.pdata	SEGMENT
$T70970	DD	?RenderScene@@YAXXZ
	DD	040007503H
;	COMDAT ??_C@_1BE@PPELJION@S?$AAo?$AAm?$AAe?$AA?5?$AAT?$AAe?$AAx?$AAt?$AA?$AA?$AA@
.rdata	SEGMENT
??_C@_1BE@PPELJION@S?$AAo?$AAm?$AAe?$AA?5?$AAT?$AAe?$AAx?$AAt?$AA?$AA?$AA@ DB 00H
	DB	'S', 00H, 'o', 00H, 'm', 00H, 'e', 00H, ' ', 00H, 'T', 00H, 'e'
	DB	00H, 'x', 00H, 't', 00H, 00H			; `string'
;	COMDAT __real@43480000
.rdata	SEGMENT
__real@43480000 DD 043480000r			; 200
;	COMDAT __real@3f800000
.rdata	SEGMENT
__real@3f800000 DD 03f800000r			; 1
; Function compile flags: /Ogsu

	.code
tv385 = 80						; size = 4
tv383 = 80						; size = 4
tv389 = 84						; size = 4
tv387 = 84						; size = 4
tv381 = 84						; size = 4
tv392 = 88						; size = 4
tv379 = 88						; size = 4
tv377 = 92						; size = 4
matView$ = 96						; size = 64

?RenderScene@@YAXXZ PROC NEAR				; RenderScene, COMDAT

; Begin code for function: ?RenderScene@@YAXXZ
; File c:\users\deadlydata\documents\visual studio 2010\projects\trainer\trainer\d3d.cpp
; Line 213
	mflr         r12
	bl           __savegprlr_14
	stwu         r1,-140h(r1)
.endprolog
$M70968:
; Line 214
	lis          r11,?g_pDevice@@3PAUD3DDevice@@A
	lis          r8,__real@3f800000
	li           r10,0
	stw          r11,5Ch(r1)
	li           r9,0
	li           r7,0
	li           r6,15		; 0Fh
	lwz          r3,?g_pDevice@@3PAUD3DDevice@@A(r11)
	li           r5,0
	lfs          fr1,__real@3f800000(r8)
	li           r4,0
	bl           D3DDevice_Clear
; Line 217
	lis          r11,?g_hDC@@3PAU_XUIDC@@A
	lis          r4,-256		; 0FF00h
	stw          r11,58h(r1)
	lwz          r3,?g_hDC@@3PAU_XUIDC@@A(r11)
	bl           XuiRenderBegin
; Line 222
	vspltisw128  vr63,0
	addi         r11,r1,matView$
	li           r10,8
	stw          r11,50h(r1)
	addi         r11,r1,matView$
	addi         r6,r1,matView$
	stw          r10,54h(r1)
	vupkd3d128   vr60,vr63,1<NORMSHORT2>
	lwz          r7,54h(r1)
	li           r5,12		; 0Ch
	stw          r6,54h(r1)
	addi         r10,r1,matView$
	lwz          r9,50h(r1)
	lvsr         vr0,r0,r11
	addi         r11,r1,matView$
	vpermwi128   vr63,vr60,234		; [3|2|2|2]
	li           r8,4
	vpermwi128   vr62,vr60,186		; [2|3|2|2]
	rlwinm       r6,r6,0,0,31
	vpermwi128   vr61,vr60,174		; [2|2|3|2]
	stw          r11,54h(r1)
	stw          r5,50h(r1)
	rlwinm       r11,r11,0,0,31
	vperm128     vr63,vr63,vr63,vr0
	rlwinm       r5,r5,0,0,31
	vperm128     vr62,vr62,vr62,vr0
	addi         r3,r1,matView$
	li           r31,16		; 10h
	vperm128     vr61,vr61,vr61,vr0
	addi         r30,r1,matView$
	vpermwi128   vr60,vr60,171		; [2|2|2|3]
	li           r29,20		; 14h
	addi         r28,r1,matView$
	li           r27,24		; 18h
	stvewx128    vr63,r0,r10
	addi         r26,r1,matView$
	stvewx128    vr63,r6,r8
	li           r10,28		; 1Ch
	stvewx128    vr63,r9,r7
	addi         r8,r1,matView$
	li           r6,32		; 20h
	stvewx128    vr63,r11,r5
	stvewx128    vr62,r3,r31
	lwz          r11,58h(r1)
	stvewx128    vr62,r30,r29
	vperm128     vr60,vr60,vr60,vr0
	stvewx128    vr62,r28,r27
	addi         r9,r1,matView$
	stvewx128    vr62,r26,r10
	li           r7,36		; 24h
	addi         r25,r1,matView$
	stvewx128    vr61,r8,r6
	li           r24,40		; 28h
	addi         r23,r1,matView$
	li           r22,44		; 2Ch
	addi         r21,r1,matView$
	li           r20,48		; 30h
	addi         r19,r1,matView$
	li           r18,52		; 34h
	addi         r17,r1,matView$
	li           r16,56		; 38h
	addi         r15,r1,matView$
	li           r14,60		; 3Ch
	addi         r4,r1,matView$
	stvewx128    vr61,r9,r7
	stw          r11,58h(r1)
	stvewx128    vr61,r25,r24
	stvewx128    vr61,r23,r22
	stvewx128    vr60,r21,r20
	stvewx128    vr60,r19,r18
	stvewx128    vr60,r17,r16
	stvewx128    vr60,r15,r14
	lwz          r3,?g_hDC@@3PAU_XUIDC@@A(r11)
	bl           XuiRenderSetViewTransform
; Line 225
	lis          r11,__real@43480000
	lwz          r31,58h(r1)
	lis          r10,?g_hFont@@3PAU_XUIFONT@@A
	lis          r9,??_C@_1BE@PPELJION@S?$AAo?$AAm?$AAe?$AA?5?$AAT?$AAe?$AAx?$AAt?$AA?$AA?$AA@
	lfs          fr2,__real@43480000(r11)
	li           r5,-1		; 0FFFFh
	fmr          fr1,fr2
	addi         r8,r9,??_C@_1BE@PPELJION@S?$AAo?$AAm?$AAe?$AA?5?$AAT?$AAe?$AAx?$AAt?$AA?$AA?$AA@
	lwz          r3,?g_hDC@@3PAU_XUIDC@@A(r31)
	lwz          r4,?g_hFont@@3PAU_XUIFONT@@A(r10)
	bl           ?DrawText@@YAXPAU_XUIDC@@PAU_XUIFONT@@KMMPB_W@Z
; Line 228
	lwz          r3,?g_hDC@@3PAU_XUIDC@@A(r31)
	bl           XuiRenderEnd
; Line 229
	li           r6,0
	lwz          r3,?g_hDC@@3PAU_XUIDC@@A(r31)
	li           r5,0
	li           r4,0
	bl           XuiRenderPresent
; Line 231
	lwz          r11,5Ch(r1)
	lwz          r3,?g_pDevice@@3PAUD3DDevice@@A(r11)
	bl           D3DDevice_Present
; Line 232
	addi         r1,r1,320		; 140h
	b            __restgprlr_14
$M70969:
; End code for function: ?RenderScene@@YAXXZ
?RenderScene@@YAXXZ ENDP
							; RenderScene
PUBLIC	?IntializeD3DTest@@YAHXZ			; IntializeD3DTest
EXTRN	GetTickCount:PROC
;	COMDAT .pdata
.pdata	SEGMENT
$T70981	DD	?IntializeD3DTest@@YAHXZ
	DD	040001a04H
; Function compile flags: /Ogsu

	.code

?IntializeD3DTest@@YAHXZ PROC NEAR			; IntializeD3DTest, COMDAT

; Begin code for function: ?IntializeD3DTest@@YAHXZ
; Line 43
	mflr         r12
	stw          r12,-8(r1)
	std          r31,-10h(r1)
	stwu         r1,-60h(r1)
.endprolog
$M70979:
; Line 44
	bl           ?InitD3D@@YAJXZ
	cmpwi        r3,0
	bge          $LN4@IntializeD
$LN11@IntializeD:
; Line 45
	li           r3,-1		; 0FFFFh
	b            $LN5@IntializeD
$LN4@IntializeD:
; Line 47
	bl           ?InitXui@@YAJXZ
	cmpwi        r3,0
; Line 48
	blt          $LN11@IntializeD
; Line 50
	bl           GetTickCount
; Line 51
	addi         r31,r3,10000		; 2710h
	b            $LN10@IntializeD
$LL2@IntializeD:					; Start of loop
; Line 53
	bl           ?RenderScene@@YAXXZ
$LN10@IntializeD:
	bl           GetTickCount
	cmplw        cr6,r3,r31
	blt          cr6,$LL2@IntializeD
; Line 56
	bl           ?UninitXui@@YAXXZ
; Line 57
	bl           ?UninitD3D@@YAXXZ
$LN5@IntializeD:
; Line 58
	addi         r1,r1,96		; 60h
	lwz          r12,-8(r1)
	mtlr         r12
	ld           r31,-10h(r1)
	blr
$M70980:
; End code for function: ?IntializeD3DTest@@YAHXZ
?IntializeD3DTest@@YAHXZ ENDP
							; IntializeD3DTest
END
