; Listing generated by Microsoft (R) Optimizing Compiler Version 16.00.11886.00 

	TITLE	C:\Users\PermaNulled\Desktop\Trainer_Engine\Trainer Engine\Trainer\main.cpp
	.PPC
	.MODEL FLAT
PUBLIC	?DrawIndexedVerticesSaveVar@@YAXXZ		; DrawIndexedVerticesSaveVar
PUBLIC	?SetTextureSaveVar@@YAXXZ			; SetTextureSaveVar
PUBLIC	?PostRenderHookSaveVar@@YAXXZ			; PostRenderHookSaveVar
PUBLIC	??_C@_0L@INBJOHFF@j_ankle_le?$AA@		; `string'
PUBLIC	??_C@_0L@DHBECGCD@j_ankle_ri?$AA@		; `string'
PUBLIC	??_C@_09FIJMBDDC@j_knee_ri?$AA@			; `string'
PUBLIC	??_C@_09OCJBNCEE@j_knee_le?$AA@			; `string'
PUBLIC	??_C@_08PIOEAPIM@j_hip_le?$AA@			; `string'
PUBLIC	??_C@_08ECOJMOPK@j_hip_ri?$AA@			; `string'
PUBLIC	??_C@_08DAPCKJEG@j_spine4?$AA@			; `string'
PUBLIC	??_C@_0N@DGMHDCAB@j_spinelower?$AA@		; `string'
PUBLIC	??_C@_0N@GNHJFJLI@j_spineupper?$AA@		; `string'
PUBLIC	??_C@_0L@BLCOJILF@j_mainroot?$AA@		; `string'
PUBLIC	??_C@_05FCKEAJFC@j_gun?$AA@			; `string'
PUBLIC	??_C@_0L@PLEFCGOJ@j_wrist_ri?$AA@		; `string'
PUBLIC	??_C@_0L@EBEIOHJP@j_wrist_le?$AA@		; `string'
PUBLIC	??_C@_0L@CBPBIDMN@j_elbow_ri?$AA@		; `string'
PUBLIC	??_C@_0L@JLPMECLL@j_elbow_le?$AA@		; `string'
PUBLIC	??_C@_0O@COPNEPLA@j_shoulder_ri?$AA@		; `string'
PUBLIC	??_C@_0O@JEPAIOMG@j_shoulder_le?$AA@		; `string'
PUBLIC	??_C@_06FGOPIAAA@j_neck?$AA@			; `string'
PUBLIC	??_C@_06FNLDLNAB@j_head?$AA@			; `string'
PUBLIC	??_C@_08CMBMJNMB@j_helmet?$AA@			; `string'
PUBLIC	??_C@_1BC@GOAHBJBA@C?$AAo?$AAn?$AAt?$AAi?$AAn?$AAu?$AAe?$AA?$AA?$AA@ ; `string'
PUBLIC	__C2_11886
PUBLIC	?state@@3U_XINPUT_STATE@@A			; state
PUBLIC	?g_mb_result@@3U_MESSAGEBOX_RESULT@@A		; g_mb_result
PUBLIC	?g_xol@@3U_XOVERLAPPED@@A			; g_xol
PUBLIC	__C1_11886
PUBLIC	D3DPRIMITIVEVERTEXCOUNT
PUBLIC	D3DTESSPRIMITIVEVERTEXCOUNT
PUBLIC	?g_XMSinCoefficients0@@3UXMVECTORF32@@B		; g_XMSinCoefficients0
PUBLIC	?g_XMSinCoefficients1@@3UXMVECTORF32@@B		; g_XMSinCoefficients1
PUBLIC	?g_XMSinCoefficients2@@3UXMVECTORF32@@B		; g_XMSinCoefficients2
PUBLIC	?g_XMCosCoefficients0@@3UXMVECTORF32@@B		; g_XMCosCoefficients0
PUBLIC	?g_XMCosCoefficients1@@3UXMVECTORF32@@B		; g_XMCosCoefficients1
PUBLIC	?g_XMCosCoefficients2@@3UXMVECTORF32@@B		; g_XMCosCoefficients2
PUBLIC	?g_XMTanCoefficients0@@3UXMVECTORF32@@B		; g_XMTanCoefficients0
PUBLIC	?g_XMTanCoefficients1@@3UXMVECTORF32@@B		; g_XMTanCoefficients1
PUBLIC	?g_XMTanCoefficients2@@3UXMVECTORF32@@B		; g_XMTanCoefficients2
PUBLIC	?g_XMASinCoefficients0@@3UXMVECTORF32@@B	; g_XMASinCoefficients0
PUBLIC	?g_XMASinCoefficients1@@3UXMVECTORF32@@B	; g_XMASinCoefficients1
PUBLIC	?g_XMASinCoefficients2@@3UXMVECTORF32@@B	; g_XMASinCoefficients2
PUBLIC	?g_XMATanCoefficients0@@3UXMVECTORF32@@B	; g_XMATanCoefficients0
PUBLIC	?g_XMATanCoefficients1@@3UXMVECTORF32@@B	; g_XMATanCoefficients1
PUBLIC	?g_XMATanCoefficients2@@3UXMVECTORF32@@B	; g_XMATanCoefficients2
PUBLIC	?g_XMSinEstCoefficients@@3UXMVECTORF32@@B	; g_XMSinEstCoefficients
PUBLIC	?g_XMCosEstCoefficients@@3UXMVECTORF32@@B	; g_XMCosEstCoefficients
PUBLIC	?g_XMTanEstCoefficients@@3UXMVECTORF32@@B	; g_XMTanEstCoefficients
PUBLIC	?g_XMATanEstCoefficients@@3UXMVECTORF32@@B	; g_XMATanEstCoefficients
PUBLIC	?g_XMASinEstCoefficients@@3UXMVECTORF32@@B	; g_XMASinEstCoefficients
PUBLIC	?g_XMASinEstConstants@@3UXMVECTORF32@@B		; g_XMASinEstConstants
PUBLIC	?g_XMPiConstants0@@3UXMVECTORF32@@B		; g_XMPiConstants0
PUBLIC	?g_XMIdentityR0@@3UXMVECTORF32@@B		; g_XMIdentityR0
PUBLIC	?g_XMIdentityR1@@3UXMVECTORF32@@B		; g_XMIdentityR1
PUBLIC	?g_XMIdentityR2@@3UXMVECTORF32@@B		; g_XMIdentityR2
PUBLIC	?g_XMIdentityR3@@3UXMVECTORF32@@B		; g_XMIdentityR3
PUBLIC	?g_XMNegIdentityR0@@3UXMVECTORF32@@B		; g_XMNegIdentityR0
PUBLIC	?g_XMNegIdentityR1@@3UXMVECTORF32@@B		; g_XMNegIdentityR1
PUBLIC	?g_XMNegIdentityR2@@3UXMVECTORF32@@B		; g_XMNegIdentityR2
PUBLIC	?g_XMNegIdentityR3@@3UXMVECTORF32@@B		; g_XMNegIdentityR3
PUBLIC	?g_XMNegativeZero@@3UXMVECTORI32@@B		; g_XMNegativeZero
PUBLIC	?g_XMNegate3@@3UXMVECTORI32@@B			; g_XMNegate3
PUBLIC	?g_XMMask3@@3UXMVECTORI32@@B			; g_XMMask3
PUBLIC	?g_XMMaskX@@3UXMVECTORI32@@B			; g_XMMaskX
PUBLIC	?g_XMMaskY@@3UXMVECTORI32@@B			; g_XMMaskY
PUBLIC	?g_XMMaskZ@@3UXMVECTORI32@@B			; g_XMMaskZ
PUBLIC	?g_XMMaskW@@3UXMVECTORI32@@B			; g_XMMaskW
PUBLIC	?g_XMOne@@3UXMVECTORF32@@B			; g_XMOne
PUBLIC	?g_XMOne3@@3UXMVECTORF32@@B			; g_XMOne3
PUBLIC	?g_XMZero@@3UXMVECTORF32@@B			; g_XMZero
PUBLIC	?g_XMNegativeOne@@3UXMVECTORF32@@B		; g_XMNegativeOne
PUBLIC	?g_XMOneHalf@@3UXMVECTORF32@@B			; g_XMOneHalf
PUBLIC	?g_XMNegativeOneHalf@@3UXMVECTORF32@@B		; g_XMNegativeOneHalf
PUBLIC	?g_XMNegativeTwoPi@@3UXMVECTORF32@@B		; g_XMNegativeTwoPi
PUBLIC	?g_XMNegativePi@@3UXMVECTORF32@@B		; g_XMNegativePi
PUBLIC	?g_XMHalfPi@@3UXMVECTORF32@@B			; g_XMHalfPi
PUBLIC	?g_XMPi@@3UXMVECTORF32@@B			; g_XMPi
PUBLIC	?g_XMReciprocalPi@@3UXMVECTORF32@@B		; g_XMReciprocalPi
PUBLIC	?g_XMTwoPi@@3UXMVECTORF32@@B			; g_XMTwoPi
PUBLIC	?g_XMReciprocalTwoPi@@3UXMVECTORF32@@B		; g_XMReciprocalTwoPi
PUBLIC	?g_XMEpsilon@@3UXMVECTORF32@@B			; g_XMEpsilon
PUBLIC	?g_XMInfinity@@3UXMVECTORI32@@B			; g_XMInfinity
PUBLIC	?g_XMQNaN@@3UXMVECTORI32@@B			; g_XMQNaN
PUBLIC	?g_XMQNaNTest@@3UXMVECTORI32@@B			; g_XMQNaNTest
PUBLIC	?g_XMAbsMask@@3UXMVECTORI32@@B			; g_XMAbsMask
PUBLIC	?g_XMFltMin@@3UXMVECTORI32@@B			; g_XMFltMin
PUBLIC	?g_XMFltMax@@3UXMVECTORI32@@B			; g_XMFltMax
PUBLIC	?g_XMNegOneMask@@3UXMVECTORI32@@B		; g_XMNegOneMask
PUBLIC	?g_XMMaskA8R8G8B8@@3UXMVECTORI32@@B		; g_XMMaskA8R8G8B8
PUBLIC	?g_XMFlipA8R8G8B8@@3UXMVECTORI32@@B		; g_XMFlipA8R8G8B8
PUBLIC	?g_XMFixAA8R8G8B8@@3UXMVECTORF32@@B		; g_XMFixAA8R8G8B8
PUBLIC	?g_XMNormalizeA8R8G8B8@@3UXMVECTORF32@@B	; g_XMNormalizeA8R8G8B8
PUBLIC	?g_XMMaskA2B10G10R10@@3UXMVECTORI32@@B		; g_XMMaskA2B10G10R10
PUBLIC	?g_XMFlipA2B10G10R10@@3UXMVECTORI32@@B		; g_XMFlipA2B10G10R10
PUBLIC	?g_XMFixAA2B10G10R10@@3UXMVECTORF32@@B		; g_XMFixAA2B10G10R10
PUBLIC	?g_XMNormalizeA2B10G10R10@@3UXMVECTORF32@@B	; g_XMNormalizeA2B10G10R10
PUBLIC	?g_XMMaskX16Y16@@3UXMVECTORI32@@B		; g_XMMaskX16Y16
PUBLIC	?g_XMFlipX16Y16@@3UXMVECTORI32@@B		; g_XMFlipX16Y16
PUBLIC	?g_XMFixX16Y16@@3UXMVECTORF32@@B		; g_XMFixX16Y16
PUBLIC	?g_XMNormalizeX16Y16@@3UXMVECTORF32@@B		; g_XMNormalizeX16Y16
PUBLIC	?g_XMMaskX16Y16Z16W16@@3UXMVECTORI32@@B		; g_XMMaskX16Y16Z16W16
PUBLIC	?g_XMFlipX16Y16Z16W16@@3UXMVECTORI32@@B		; g_XMFlipX16Y16Z16W16
PUBLIC	?g_XMFixX16Y16Z16W16@@3UXMVECTORF32@@B		; g_XMFixX16Y16Z16W16
PUBLIC	?g_XMNormalizeX16Y16Z16W16@@3UXMVECTORF32@@B	; g_XMNormalizeX16Y16Z16W16
PUBLIC	?g_XMNoFraction@@3UXMVECTORF32@@B		; g_XMNoFraction
PUBLIC	?g_XMMaskByte@@3UXMVECTORI32@@B			; g_XMMaskByte
PUBLIC	?g_XMNegateX@@3UXMVECTORF32@@B			; g_XMNegateX
PUBLIC	?g_XMNegateY@@3UXMVECTORF32@@B			; g_XMNegateY
PUBLIC	?g_XMNegateZ@@3UXMVECTORF32@@B			; g_XMNegateZ
PUBLIC	?g_XMNegateW@@3UXMVECTORF32@@B			; g_XMNegateW
PUBLIC	?g_XMSelect0101@@3UXMVECTORI32@@B		; g_XMSelect0101
PUBLIC	?g_XMSelect1010@@3UXMVECTORI32@@B		; g_XMSelect1010
PUBLIC	?g_XMOneHalfMinusEpsilon@@3UXMVECTORI32@@B	; g_XMOneHalfMinusEpsilon
PUBLIC	?g_XMSelect1000@@3UXMVECTORI32@@B		; g_XMSelect1000
PUBLIC	?g_XMSelect1100@@3UXMVECTORI32@@B		; g_XMSelect1100
PUBLIC	?g_XMSelect1110@@3UXMVECTORI32@@B		; g_XMSelect1110
PUBLIC	?g_XMSwizzleXYXY@@3UXMVECTORI32@@B		; g_XMSwizzleXYXY
PUBLIC	?g_XMSwizzleXYZX@@3UXMVECTORI32@@B		; g_XMSwizzleXYZX
PUBLIC	?g_XMSwizzleYXZW@@3UXMVECTORI32@@B		; g_XMSwizzleYXZW
PUBLIC	?g_XMSwizzleYZXW@@3UXMVECTORI32@@B		; g_XMSwizzleYZXW
PUBLIC	?g_XMSwizzleZXYW@@3UXMVECTORI32@@B		; g_XMSwizzleZXYW
PUBLIC	?g_XMPermute0X0Y1X1Y@@3UXMVECTORI32@@B		; g_XMPermute0X0Y1X1Y
PUBLIC	?g_XMPermute0Z0W1Z1W@@3UXMVECTORI32@@B		; g_XMPermute0Z0W1Z1W
PUBLIC	?g_XMFixupY16@@3UXMVECTORF32@@B			; g_XMFixupY16
PUBLIC	?g_XMFixupY16W16@@3UXMVECTORF32@@B		; g_XMFixupY16W16
PUBLIC	?g_XMFlipY@@3UXMVECTORI32@@B			; g_XMFlipY
PUBLIC	?g_XMFlipZ@@3UXMVECTORI32@@B			; g_XMFlipZ
PUBLIC	?g_XMFlipW@@3UXMVECTORI32@@B			; g_XMFlipW
PUBLIC	?g_XMFlipYZ@@3UXMVECTORI32@@B			; g_XMFlipYZ
PUBLIC	?g_XMFlipZW@@3UXMVECTORI32@@B			; g_XMFlipZW
PUBLIC	?g_XMFlipYW@@3UXMVECTORI32@@B			; g_XMFlipYW
PUBLIC	?g_XMMaskHenD3@@3UXMVECTORI32@@B		; g_XMMaskHenD3
PUBLIC	?g_XMMaskDHen3@@3UXMVECTORI32@@B		; g_XMMaskDHen3
PUBLIC	?g_XMAddUHenD3@@3UXMVECTORF32@@B		; g_XMAddUHenD3
PUBLIC	?g_XMAddHenD3@@3UXMVECTORF32@@B			; g_XMAddHenD3
PUBLIC	?g_XMAddDHen3@@3UXMVECTORF32@@B			; g_XMAddDHen3
PUBLIC	?g_XMMulHenD3@@3UXMVECTORF32@@B			; g_XMMulHenD3
PUBLIC	?g_XMMulDHen3@@3UXMVECTORF32@@B			; g_XMMulDHen3
PUBLIC	?g_XMXorHenD3@@3UXMVECTORI32@@B			; g_XMXorHenD3
PUBLIC	?g_XMXorDHen3@@3UXMVECTORI32@@B			; g_XMXorDHen3
PUBLIC	?g_XMMaskIco4@@3UXMVECTORI32@@B			; g_XMMaskIco4
PUBLIC	?g_XMXorXIco4@@3UXMVECTORI32@@B			; g_XMXorXIco4
PUBLIC	?g_XMXorIco4@@3UXMVECTORI32@@B			; g_XMXorIco4
PUBLIC	?g_XMAddXIco4@@3UXMVECTORF32@@B			; g_XMAddXIco4
PUBLIC	?g_XMAddUIco4@@3UXMVECTORF32@@B			; g_XMAddUIco4
PUBLIC	?g_XMAddIco4@@3UXMVECTORF32@@B			; g_XMAddIco4
PUBLIC	?g_XMMulIco4@@3UXMVECTORF32@@B			; g_XMMulIco4
PUBLIC	?g_XMMaskDec4@@3UXMVECTORI32@@B			; g_XMMaskDec4
PUBLIC	?g_XMXorDec4@@3UXMVECTORI32@@B			; g_XMXorDec4
PUBLIC	?g_XMAddUDec4@@3UXMVECTORF32@@B			; g_XMAddUDec4
PUBLIC	?g_XMAddDec4@@3UXMVECTORF32@@B			; g_XMAddDec4
PUBLIC	?g_XMMulDec4@@3UXMVECTORF32@@B			; g_XMMulDec4
PUBLIC	?g_XMMaskByte4@@3UXMVECTORI32@@B		; g_XMMaskByte4
PUBLIC	?g_XMXorByte4@@3UXMVECTORI32@@B			; g_XMXorByte4
PUBLIC	?g_XMAddByte4@@3UXMVECTORF32@@B			; g_XMAddByte4
PUBLIC	?g_XMFixUnsigned@@3UXMVECTORF32@@B		; g_XMFixUnsigned
PUBLIC	?g_XMMaxInt@@3UXMVECTORF32@@B			; g_XMMaxInt
PUBLIC	?g_XMMaxUInt@@3UXMVECTORF32@@B			; g_XMMaxUInt
PUBLIC	?g_XMUnsignedFix@@3UXMVECTORF32@@B		; g_XMUnsignedFix
PUBLIC	?has_denorm@_Num_base@std@@2W4float_denorm_style@2@B ; std::_Num_base::has_denorm
PUBLIC	?has_denorm_loss@_Num_base@std@@2_NB		; std::_Num_base::has_denorm_loss
PUBLIC	?has_infinity@_Num_base@std@@2_NB		; std::_Num_base::has_infinity
PUBLIC	?has_quiet_NaN@_Num_base@std@@2_NB		; std::_Num_base::has_quiet_NaN
PUBLIC	?has_signaling_NaN@_Num_base@std@@2_NB		; std::_Num_base::has_signaling_NaN
PUBLIC	?is_bounded@_Num_base@std@@2_NB			; std::_Num_base::is_bounded
PUBLIC	?is_exact@_Num_base@std@@2_NB			; std::_Num_base::is_exact
PUBLIC	?is_iec559@_Num_base@std@@2_NB			; std::_Num_base::is_iec559
PUBLIC	?is_integer@_Num_base@std@@2_NB			; std::_Num_base::is_integer
PUBLIC	?is_modulo@_Num_base@std@@2_NB			; std::_Num_base::is_modulo
PUBLIC	?is_signed@_Num_base@std@@2_NB			; std::_Num_base::is_signed
PUBLIC	?is_specialized@_Num_base@std@@2_NB		; std::_Num_base::is_specialized
PUBLIC	?tinyness_before@_Num_base@std@@2_NB		; std::_Num_base::tinyness_before
PUBLIC	?traps@_Num_base@std@@2_NB			; std::_Num_base::traps
PUBLIC	?round_style@_Num_base@std@@2W4float_round_style@2@B ; std::_Num_base::round_style
PUBLIC	?digits@_Num_base@std@@2HB			; std::_Num_base::digits
PUBLIC	?digits10@_Num_base@std@@2HB			; std::_Num_base::digits10
PUBLIC	?max_digits10@_Num_base@std@@2HB		; std::_Num_base::max_digits10
PUBLIC	?max_exponent@_Num_base@std@@2HB		; std::_Num_base::max_exponent
PUBLIC	?max_exponent10@_Num_base@std@@2HB		; std::_Num_base::max_exponent10
PUBLIC	?min_exponent@_Num_base@std@@2HB		; std::_Num_base::min_exponent
PUBLIC	?min_exponent10@_Num_base@std@@2HB		; std::_Num_base::min_exponent10
PUBLIC	?radix@_Num_base@std@@2HB			; std::_Num_base::radix
PUBLIC	?is_bounded@_Num_int_base@std@@2_NB		; std::_Num_int_base::is_bounded
PUBLIC	?is_exact@_Num_int_base@std@@2_NB		; std::_Num_int_base::is_exact
PUBLIC	?is_integer@_Num_int_base@std@@2_NB		; std::_Num_int_base::is_integer
PUBLIC	?is_modulo@_Num_int_base@std@@2_NB		; std::_Num_int_base::is_modulo
PUBLIC	?is_specialized@_Num_int_base@std@@2_NB		; std::_Num_int_base::is_specialized
PUBLIC	?radix@_Num_int_base@std@@2HB			; std::_Num_int_base::radix
PUBLIC	?has_denorm@_Num_float_base@std@@2W4float_denorm_style@2@B ; std::_Num_float_base::has_denorm
PUBLIC	?has_denorm_loss@_Num_float_base@std@@2_NB	; std::_Num_float_base::has_denorm_loss
PUBLIC	?has_infinity@_Num_float_base@std@@2_NB		; std::_Num_float_base::has_infinity
PUBLIC	?has_quiet_NaN@_Num_float_base@std@@2_NB	; std::_Num_float_base::has_quiet_NaN
PUBLIC	?has_signaling_NaN@_Num_float_base@std@@2_NB	; std::_Num_float_base::has_signaling_NaN
PUBLIC	?is_bounded@_Num_float_base@std@@2_NB		; std::_Num_float_base::is_bounded
PUBLIC	?is_exact@_Num_float_base@std@@2_NB		; std::_Num_float_base::is_exact
PUBLIC	?is_iec559@_Num_float_base@std@@2_NB		; std::_Num_float_base::is_iec559
PUBLIC	?is_integer@_Num_float_base@std@@2_NB		; std::_Num_float_base::is_integer
PUBLIC	?is_modulo@_Num_float_base@std@@2_NB		; std::_Num_float_base::is_modulo
PUBLIC	?is_signed@_Num_float_base@std@@2_NB		; std::_Num_float_base::is_signed
PUBLIC	?is_specialized@_Num_float_base@std@@2_NB	; std::_Num_float_base::is_specialized
PUBLIC	?tinyness_before@_Num_float_base@std@@2_NB	; std::_Num_float_base::tinyness_before
PUBLIC	?traps@_Num_float_base@std@@2_NB		; std::_Num_float_base::traps
PUBLIC	?round_style@_Num_float_base@std@@2W4float_round_style@2@B ; std::_Num_float_base::round_style
PUBLIC	?radix@_Num_float_base@std@@2HB			; std::_Num_float_base::radix
PUBLIC	?is_signed@?$numeric_limits@D@std@@2_NB		; std::numeric_limits<char>::is_signed
PUBLIC	?digits@?$numeric_limits@D@std@@2HB		; std::numeric_limits<char>::digits
PUBLIC	?digits10@?$numeric_limits@D@std@@2HB		; std::numeric_limits<char>::digits10
PUBLIC	?max_digits10@?$numeric_limits@D@std@@2HB	; std::numeric_limits<char>::max_digits10
PUBLIC	?is_signed@?$numeric_limits@_W@std@@2_NB	; std::numeric_limits<wchar_t>::is_signed
PUBLIC	?digits@?$numeric_limits@_W@std@@2HB		; std::numeric_limits<wchar_t>::digits
PUBLIC	?digits10@?$numeric_limits@_W@std@@2HB		; std::numeric_limits<wchar_t>::digits10
PUBLIC	?max_digits10@?$numeric_limits@_W@std@@2HB	; std::numeric_limits<wchar_t>::max_digits10
PUBLIC	?is_modulo@?$numeric_limits@_N@std@@2_NB	; std::numeric_limits<bool>::is_modulo
PUBLIC	?is_signed@?$numeric_limits@_N@std@@2_NB	; std::numeric_limits<bool>::is_signed
PUBLIC	?digits@?$numeric_limits@_N@std@@2HB		; std::numeric_limits<bool>::digits
PUBLIC	?digits10@?$numeric_limits@_N@std@@2HB		; std::numeric_limits<bool>::digits10
PUBLIC	?max_digits10@?$numeric_limits@_N@std@@2HB	; std::numeric_limits<bool>::max_digits10
PUBLIC	?is_signed@?$numeric_limits@C@std@@2_NB		; std::numeric_limits<signed char>::is_signed
PUBLIC	?digits@?$numeric_limits@C@std@@2HB		; std::numeric_limits<signed char>::digits
PUBLIC	?digits10@?$numeric_limits@C@std@@2HB		; std::numeric_limits<signed char>::digits10
PUBLIC	?max_digits10@?$numeric_limits@C@std@@2HB	; std::numeric_limits<signed char>::max_digits10
PUBLIC	?is_signed@?$numeric_limits@E@std@@2_NB		; std::numeric_limits<unsigned char>::is_signed
PUBLIC	?digits@?$numeric_limits@E@std@@2HB		; std::numeric_limits<unsigned char>::digits
PUBLIC	?digits10@?$numeric_limits@E@std@@2HB		; std::numeric_limits<unsigned char>::digits10
PUBLIC	?max_digits10@?$numeric_limits@E@std@@2HB	; std::numeric_limits<unsigned char>::max_digits10
PUBLIC	?is_signed@?$numeric_limits@F@std@@2_NB		; std::numeric_limits<short>::is_signed
PUBLIC	?digits@?$numeric_limits@F@std@@2HB		; std::numeric_limits<short>::digits
PUBLIC	?digits10@?$numeric_limits@F@std@@2HB		; std::numeric_limits<short>::digits10
PUBLIC	?max_digits10@?$numeric_limits@F@std@@2HB	; std::numeric_limits<short>::max_digits10
PUBLIC	?is_signed@?$numeric_limits@G@std@@2_NB		; std::numeric_limits<unsigned short>::is_signed
PUBLIC	?digits@?$numeric_limits@G@std@@2HB		; std::numeric_limits<unsigned short>::digits
PUBLIC	?digits10@?$numeric_limits@G@std@@2HB		; std::numeric_limits<unsigned short>::digits10
PUBLIC	?max_digits10@?$numeric_limits@G@std@@2HB	; std::numeric_limits<unsigned short>::max_digits10
PUBLIC	?is_signed@?$numeric_limits@H@std@@2_NB		; std::numeric_limits<int>::is_signed
PUBLIC	?digits@?$numeric_limits@H@std@@2HB		; std::numeric_limits<int>::digits
PUBLIC	?digits10@?$numeric_limits@H@std@@2HB		; std::numeric_limits<int>::digits10
PUBLIC	?max_digits10@?$numeric_limits@H@std@@2HB	; std::numeric_limits<int>::max_digits10
PUBLIC	?is_signed@?$numeric_limits@I@std@@2_NB		; std::numeric_limits<unsigned int>::is_signed
PUBLIC	?digits@?$numeric_limits@I@std@@2HB		; std::numeric_limits<unsigned int>::digits
PUBLIC	?digits10@?$numeric_limits@I@std@@2HB		; std::numeric_limits<unsigned int>::digits10
PUBLIC	?max_digits10@?$numeric_limits@I@std@@2HB	; std::numeric_limits<unsigned int>::max_digits10
PUBLIC	?is_signed@?$numeric_limits@J@std@@2_NB		; std::numeric_limits<long>::is_signed
PUBLIC	?digits@?$numeric_limits@J@std@@2HB		; std::numeric_limits<long>::digits
PUBLIC	?digits10@?$numeric_limits@J@std@@2HB		; std::numeric_limits<long>::digits10
PUBLIC	?max_digits10@?$numeric_limits@J@std@@2HB	; std::numeric_limits<long>::max_digits10
PUBLIC	?is_signed@?$numeric_limits@K@std@@2_NB		; std::numeric_limits<unsigned long>::is_signed
PUBLIC	?digits@?$numeric_limits@K@std@@2HB		; std::numeric_limits<unsigned long>::digits
PUBLIC	?digits10@?$numeric_limits@K@std@@2HB		; std::numeric_limits<unsigned long>::digits10
PUBLIC	?max_digits10@?$numeric_limits@K@std@@2HB	; std::numeric_limits<unsigned long>::max_digits10
PUBLIC	?is_signed@?$numeric_limits@_J@std@@2_NB	; std::numeric_limits<__int64>::is_signed
PUBLIC	?digits@?$numeric_limits@_J@std@@2HB		; std::numeric_limits<__int64>::digits
PUBLIC	?digits10@?$numeric_limits@_J@std@@2HB		; std::numeric_limits<__int64>::digits10
PUBLIC	?max_digits10@?$numeric_limits@_J@std@@2HB	; std::numeric_limits<__int64>::max_digits10
PUBLIC	?is_signed@?$numeric_limits@_K@std@@2_NB	; std::numeric_limits<unsigned __int64>::is_signed
PUBLIC	?digits@?$numeric_limits@_K@std@@2HB		; std::numeric_limits<unsigned __int64>::digits
PUBLIC	?digits10@?$numeric_limits@_K@std@@2HB		; std::numeric_limits<unsigned __int64>::digits10
PUBLIC	?max_digits10@?$numeric_limits@_K@std@@2HB	; std::numeric_limits<unsigned __int64>::max_digits10
PUBLIC	?digits@?$numeric_limits@M@std@@2HB		; std::numeric_limits<float>::digits
PUBLIC	?digits10@?$numeric_limits@M@std@@2HB		; std::numeric_limits<float>::digits10
PUBLIC	?max_digits10@?$numeric_limits@M@std@@2HB	; std::numeric_limits<float>::max_digits10
PUBLIC	?max_exponent@?$numeric_limits@M@std@@2HB	; std::numeric_limits<float>::max_exponent
PUBLIC	?max_exponent10@?$numeric_limits@M@std@@2HB	; std::numeric_limits<float>::max_exponent10
PUBLIC	?min_exponent@?$numeric_limits@M@std@@2HB	; std::numeric_limits<float>::min_exponent
PUBLIC	?min_exponent10@?$numeric_limits@M@std@@2HB	; std::numeric_limits<float>::min_exponent10
PUBLIC	?digits@?$numeric_limits@N@std@@2HB		; std::numeric_limits<double>::digits
PUBLIC	?digits10@?$numeric_limits@N@std@@2HB		; std::numeric_limits<double>::digits10
PUBLIC	?max_digits10@?$numeric_limits@N@std@@2HB	; std::numeric_limits<double>::max_digits10
PUBLIC	?max_exponent@?$numeric_limits@N@std@@2HB	; std::numeric_limits<double>::max_exponent
PUBLIC	?max_exponent10@?$numeric_limits@N@std@@2HB	; std::numeric_limits<double>::max_exponent10
PUBLIC	?min_exponent@?$numeric_limits@N@std@@2HB	; std::numeric_limits<double>::min_exponent
PUBLIC	?min_exponent10@?$numeric_limits@N@std@@2HB	; std::numeric_limits<double>::min_exponent10
PUBLIC	?digits@?$numeric_limits@O@std@@2HB		; std::numeric_limits<long double>::digits
PUBLIC	?digits10@?$numeric_limits@O@std@@2HB		; std::numeric_limits<long double>::digits10
PUBLIC	?max_digits10@?$numeric_limits@O@std@@2HB	; std::numeric_limits<long double>::max_digits10
PUBLIC	?max_exponent@?$numeric_limits@O@std@@2HB	; std::numeric_limits<long double>::max_exponent
PUBLIC	?max_exponent10@?$numeric_limits@O@std@@2HB	; std::numeric_limits<long double>::max_exponent10
PUBLIC	?min_exponent@?$numeric_limits@O@std@@2HB	; std::numeric_limits<long double>::min_exponent
PUBLIC	?min_exponent10@?$numeric_limits@O@std@@2HB	; std::numeric_limits<long double>::min_exponent10
PUBLIC	?value@?$integral_constant@_N$0A@@tr1@std@@2_NB	; std::tr1::integral_constant<bool,0>::value
PUBLIC	?value@?$integral_constant@_N$00@tr1@std@@2_NB	; std::tr1::integral_constant<bool,1>::value
PUBLIC	?value@?$integral_constant@I$0A@@tr1@std@@2IB	; std::tr1::integral_constant<unsigned int,0>::value
PUBLIC	?_Rank@?$_Arithmetic_traits@_N@std@@2HB		; std::_Arithmetic_traits<bool>::_Rank
PUBLIC	?_Rank@?$_Arithmetic_traits@D@std@@2HB		; std::_Arithmetic_traits<char>::_Rank
PUBLIC	?_Rank@?$_Arithmetic_traits@C@std@@2HB		; std::_Arithmetic_traits<signed char>::_Rank
PUBLIC	?_Rank@?$_Arithmetic_traits@E@std@@2HB		; std::_Arithmetic_traits<unsigned char>::_Rank
PUBLIC	?_Rank@?$_Arithmetic_traits@F@std@@2HB		; std::_Arithmetic_traits<short>::_Rank
PUBLIC	?_Rank@?$_Arithmetic_traits@G@std@@2HB		; std::_Arithmetic_traits<unsigned short>::_Rank
PUBLIC	?_Rank@?$_Arithmetic_traits@H@std@@2HB		; std::_Arithmetic_traits<int>::_Rank
PUBLIC	?_Rank@?$_Arithmetic_traits@I@std@@2HB		; std::_Arithmetic_traits<unsigned int>::_Rank
PUBLIC	?_Rank@?$_Arithmetic_traits@J@std@@2HB		; std::_Arithmetic_traits<long>::_Rank
PUBLIC	?_Rank@?$_Arithmetic_traits@K@std@@2HB		; std::_Arithmetic_traits<unsigned long>::_Rank
PUBLIC	?_Rank@?$_Arithmetic_traits@_J@std@@2HB		; std::_Arithmetic_traits<__int64>::_Rank
PUBLIC	?_Rank@?$_Arithmetic_traits@_K@std@@2HB		; std::_Arithmetic_traits<unsigned __int64>::_Rank
PUBLIC	?_Rank@?$_Arithmetic_traits@M@std@@2HB		; std::_Arithmetic_traits<float>::_Rank
PUBLIC	?_Rank@?$_Arithmetic_traits@N@std@@2HB		; std::_Arithmetic_traits<double>::_Rank
PUBLIC	?_Rank@?$_Arithmetic_traits@O@std@@2HB		; std::_Arithmetic_traits<long double>::_Rank
PUBLIC	?g_strButtons@@3PAPB_WA				; g_strButtons
PUBLIC	?PrintData@@3_NA				; PrintData
PUBLIC	?PatchData@@3_NA				; PatchData
PUBLIC	?PrintCur@@3_NA					; PrintCur
PUBLIC	?PrintSave@@3_NA				; PrintSave
PUBLIC	?tx@@3IA					; tx
PUBLIC	?Prompt@@3KA					; Prompt
PUBLIC	g_XGTextureFormatBitsPerPixel
PUBLIC	?g_titleID@@3IA					; g_titleID
PUBLIC	?RunOnce@@3_NA					; RunOnce
PUBLIC	?Bones@@3PAPADA					; Bones
PUBLIC	?ppEntities@@3PAPAUentity_t@@A			; ppEntities
PUBLIC	?ppGame_s@@3PAPAUcgs_t@@A			; ppGame_s
PUBLIC	?CG_CalcNamePosition@@3P6AXHPAVCVector@@PAM1@ZA	; CG_CalcNamePosition
PUBLIC	?CL_DrawTextPhysical@@3P6AXPBDHKMMMMPAMH@ZA	; CL_DrawTextPhysical
PUBLIC	?CL_RegisterFont@@3P6AKPBDH@ZA			; CL_RegisterFont
PUBLIC	?CL_DrawStretchPicPhysical@@3P6AXMMMMMMMMPAMK@ZA ; CL_DrawStretchPicPhysical
PUBLIC	?Material_RegisterHandle@@3P6AKPBDH@ZA		; Material_RegisterHandle
PUBLIC	?AimTarget_IsTargetVisible@@3P6A_NHPAUentity_t@@I@ZA ; AimTarget_IsTargetVisible
PUBLIC	?AimTarget_GetTagPos@@3P6AXHPAUentity_t@@IPAVCVector@@@ZA ; AimTarget_GetTagPos
PUBLIC	?GScr_AllocString@@3P6AIPBD@ZA			; GScr_AllocString
PUBLIC	?OnSameTeam@@3P6AHPAUentity_t@@0@ZA		; OnSameTeam
PUBLIC	?PostRenderHookSave@@3P6AXH@ZA			; PostRenderHookSave
PUBLIC	?g_pTexGreen@@3PAUD3DTexture@@A			; g_pTexGreen
PUBLIC	?g_pTexBlue@@3PAUD3DTexture@@A			; g_pTexBlue
PUBLIC	?SetTextureSave@@3P6AJPAUD3DDevice@@IPAUD3DBaseTexture@@_K@ZA ; SetTextureSave
PUBLIC	?DrawIndexedVerticesSave@@3P6AJPAUD3DDevice@@HHII@ZA ; DrawIndexedVerticesSave
PUBLIC	?dwPlayerIndex@@3KA				; dwPlayerIndex
	.bss
?state@@3U_XINPUT_STATE@@A DB 010H DUP (?)		; state
?g_mb_result@@3U_MESSAGEBOX_RESULT@@A DQ 01H DUP (?)	; g_mb_result
?g_xol@@3U_XOVERLAPPED@@A DB 01cH DUP (?)		; g_xol
?PrintData@@3_NA DB 01H DUP (?)				; PrintData
	ALIGN	4

?PatchData@@3_NA DB 01H DUP (?)				; PatchData
	ALIGN	4

?PrintCur@@3_NA DB 01H DUP (?)				; PrintCur
	ALIGN	4

?PrintSave@@3_NA DB 01H DUP (?)				; PrintSave
	ALIGN	4

?tx@@3IA DD	01H DUP (?)				; tx
?g_pTexGreen@@3PAUD3DTexture@@A DD 01H DUP (?)		; g_pTexGreen
?g_pTexBlue@@3PAUD3DTexture@@A DD 01H DUP (?)		; g_pTexBlue
?dwPlayerIndex@@3KA DD 01H DUP (?)			; dwPlayerIndex
	.rdata
bAqua	DB	042H
	DB	04dH
	DB	03aH
	DB	00H
	DB	00H
	DB	00H
	DB	00H
	DB	00H
	DB	00H
	DB	00H
	DB	036H
	DB	00H
	DB	00H
	DB	00H
	DB	028H
	DB	00H
	DB	00H
	DB	00H
	DB	01H
	DB	00H
	DB	00H
	DB	00H
	DB	01H
	DB	00H
	DB	00H
	DB	00H
	DB	01H
	DB	00H
	DB	018H
	DB	00H
	DB	00H
	DB	00H
	DB	00H
	DB	00H
	DB	04H
	DB	00H
	DB	00H
	DB	00H
	DB	00H
	DB	00H
	DB	00H
	DB	00H
	DB	00H
	DB	00H
	DB	00H
	DB	00H
	DB	00H
	DB	00H
	DB	00H
	DB	00H
	DB	00H
	DB	00H
	DB	00H
	DB	00H
	DB	0ffH
	DB	0ffH
	DB	00H
	DB	00H
	ORG $+2
bPurple	DB	042H
	DB	04dH
	DB	03aH
	DB	00H
	DB	00H
	DB	00H
	DB	00H
	DB	00H
	DB	00H
	DB	00H
	DB	036H
	DB	00H
	DB	00H
	DB	00H
	DB	028H
	DB	00H
	DB	00H
	DB	00H
	DB	01H
	DB	00H
	DB	00H
	DB	00H
	DB	01H
	DB	00H
	DB	00H
	DB	00H
	DB	01H
	DB	00H
	DB	018H
	DB	00H
	DB	00H
	DB	00H
	DB	00H
	DB	00H
	DB	04H
	DB	00H
	DB	00H
	DB	00H
	DB	00H
	DB	00H
	DB	00H
	DB	00H
	DB	00H
	DB	00H
	DB	00H
	DB	00H
	DB	00H
	DB	00H
	DB	00H
	DB	00H
	DB	00H
	DB	00H
	DB	00H
	DB	00H
	DB	0ffH
	DB	00H
	DB	0ffH
	DB	00H
;	COMDAT ??_C@_0L@INBJOHFF@j_ankle_le?$AA@
.rdata	SEGMENT
??_C@_0L@INBJOHFF@j_ankle_le?$AA@ DB 'j_ankle_le', 00H	; `string'
;	COMDAT ??_C@_0L@DHBECGCD@j_ankle_ri?$AA@
.rdata	SEGMENT
??_C@_0L@DHBECGCD@j_ankle_ri?$AA@ DB 'j_ankle_ri', 00H	; `string'
;	COMDAT ??_C@_09FIJMBDDC@j_knee_ri?$AA@
.rdata	SEGMENT
??_C@_09FIJMBDDC@j_knee_ri?$AA@ DB 'j_knee_ri', 00H	; `string'
;	COMDAT ??_C@_09OCJBNCEE@j_knee_le?$AA@
.rdata	SEGMENT
??_C@_09OCJBNCEE@j_knee_le?$AA@ DB 'j_knee_le', 00H	; `string'
;	COMDAT ??_C@_08PIOEAPIM@j_hip_le?$AA@
.rdata	SEGMENT
??_C@_08PIOEAPIM@j_hip_le?$AA@ DB 'j_hip_le', 00H	; `string'
;	COMDAT ??_C@_08ECOJMOPK@j_hip_ri?$AA@
.rdata	SEGMENT
??_C@_08ECOJMOPK@j_hip_ri?$AA@ DB 'j_hip_ri', 00H	; `string'
;	COMDAT ??_C@_08DAPCKJEG@j_spine4?$AA@
.rdata	SEGMENT
??_C@_08DAPCKJEG@j_spine4?$AA@ DB 'j_spine4', 00H	; `string'
;	COMDAT ??_C@_0N@DGMHDCAB@j_spinelower?$AA@
.rdata	SEGMENT
??_C@_0N@DGMHDCAB@j_spinelower?$AA@ DB 'j_spinelower', 00H ; `string'
;	COMDAT ??_C@_0N@GNHJFJLI@j_spineupper?$AA@
.rdata	SEGMENT
??_C@_0N@GNHJFJLI@j_spineupper?$AA@ DB 'j_spineupper', 00H ; `string'
;	COMDAT ??_C@_0L@BLCOJILF@j_mainroot?$AA@
.rdata	SEGMENT
??_C@_0L@BLCOJILF@j_mainroot?$AA@ DB 'j_mainroot', 00H	; `string'
;	COMDAT ??_C@_05FCKEAJFC@j_gun?$AA@
.rdata	SEGMENT
??_C@_05FCKEAJFC@j_gun?$AA@ DB 'j_gun', 00H		; `string'
;	COMDAT ??_C@_0L@PLEFCGOJ@j_wrist_ri?$AA@
.rdata	SEGMENT
??_C@_0L@PLEFCGOJ@j_wrist_ri?$AA@ DB 'j_wrist_ri', 00H	; `string'
;	COMDAT ??_C@_0L@EBEIOHJP@j_wrist_le?$AA@
.rdata	SEGMENT
??_C@_0L@EBEIOHJP@j_wrist_le?$AA@ DB 'j_wrist_le', 00H	; `string'
;	COMDAT ??_C@_0L@CBPBIDMN@j_elbow_ri?$AA@
.rdata	SEGMENT
??_C@_0L@CBPBIDMN@j_elbow_ri?$AA@ DB 'j_elbow_ri', 00H	; `string'
;	COMDAT ??_C@_0L@JLPMECLL@j_elbow_le?$AA@
.rdata	SEGMENT
??_C@_0L@JLPMECLL@j_elbow_le?$AA@ DB 'j_elbow_le', 00H	; `string'
;	COMDAT ??_C@_0O@COPNEPLA@j_shoulder_ri?$AA@
.rdata	SEGMENT
??_C@_0O@COPNEPLA@j_shoulder_ri?$AA@ DB 'j_shoulder_ri', 00H ; `string'
;	COMDAT ??_C@_0O@JEPAIOMG@j_shoulder_le?$AA@
.rdata	SEGMENT
??_C@_0O@JEPAIOMG@j_shoulder_le?$AA@ DB 'j_shoulder_le', 00H ; `string'
;	COMDAT ??_C@_06FGOPIAAA@j_neck?$AA@
.rdata	SEGMENT
??_C@_06FGOPIAAA@j_neck?$AA@ DB 'j_neck', 00H		; `string'
;	COMDAT ??_C@_06FNLDLNAB@j_head?$AA@
.rdata	SEGMENT
??_C@_06FNLDLNAB@j_head?$AA@ DB 'j_head', 00H		; `string'
;	COMDAT ??_C@_08CMBMJNMB@j_helmet?$AA@
.rdata	SEGMENT
??_C@_08CMBMJNMB@j_helmet?$AA@ DB 'j_helmet', 00H	; `string'
;	COMDAT g_XGTextureFormatBitsPerPixel
.rdata	SEGMENT
g_XGTextureFormatBitsPerPixel DB 01H
	DB	01H
	DB	08H
	DB	010H
	DB	010H
	DB	010H
	DB	020H
	DB	020H
	DB	08H
	DB	08H
	DB	010H
	DB	010H
	DB	010H
	DB	020H
	DB	020H
	DB	010H
	DB	020H
	DB	020H
	DB	04H
	DB	08H
	DB	08H
	DB	040H
	DB	020H
	DB	020H
	DB	010H
	DB	020H
	DB	040H
	DB	010H
	DB	020H
	DB	040H
	DB	010H
	DB	020H
	DB	040H
	DB	020H
	DB	040H
	DB	080H
	DB	020H
	DB	040H
	DB	080H
	DB	08H
	DB	010H
	DB	010H
	DB	020H
	DB	08H
	DB	08H
	DB	010H
	DB	010H
	DB	010H
	DB	020H
	DB	08H
	DB	020H
	DB	04H
	DB	08H
	DB	08H
	DB	020H
	DB	020H
	DB	020H
	DB	060H
	DB	04H
	DB	04H
	DB	04H
	DB	04H
	DB	020H
	DB	020H
	.data
?g_strButtons@@3PAPB_WA DD ??_C@_1BC@GOAHBJBA@C?$AAo?$AAn?$AAt?$AAi?$AAn?$AAu?$AAe?$AA?$AA?$AA@ ; g_strButtons
?Prompt@@3KA DD	09999H					; Prompt
?g_titleID@@3IA DD 04d530805H				; g_titleID
?RunOnce@@3_NA DB 01H					; RunOnce
	ORG $+3
?Bones@@3PAPADA DD ??_C@_08CMBMJNMB@j_helmet?$AA@	; Bones
	DD	??_C@_06FNLDLNAB@j_head?$AA@
	DD	??_C@_06FGOPIAAA@j_neck?$AA@
	DD	??_C@_0O@JEPAIOMG@j_shoulder_le?$AA@
	DD	??_C@_0O@COPNEPLA@j_shoulder_ri?$AA@
	DD	??_C@_0L@JLPMECLL@j_elbow_le?$AA@
	DD	??_C@_0L@CBPBIDMN@j_elbow_ri?$AA@
	DD	??_C@_0L@EBEIOHJP@j_wrist_le?$AA@
	DD	??_C@_0L@PLEFCGOJ@j_wrist_ri?$AA@
	DD	??_C@_05FCKEAJFC@j_gun?$AA@
	DD	??_C@_0L@BLCOJILF@j_mainroot?$AA@
	DD	??_C@_0N@GNHJFJLI@j_spineupper?$AA@
	DD	??_C@_0N@DGMHDCAB@j_spinelower?$AA@
	DD	??_C@_08DAPCKJEG@j_spine4?$AA@
	DD	??_C@_08ECOJMOPK@j_hip_ri?$AA@
	DD	??_C@_08PIOEAPIM@j_hip_le?$AA@
	DD	??_C@_09OCJBNCEE@j_knee_le?$AA@
	DD	??_C@_09FIJMBDDC@j_knee_ri?$AA@
	DD	??_C@_0L@DHBECGCD@j_ankle_ri?$AA@
	DD	??_C@_0L@INBJOHFF@j_ankle_le?$AA@
?ppEntities@@3PAPAUentity_t@@A DD 0826436b8H		; ppEntities
?ppGame_s@@3PAPAUcgs_t@@A DD 08263ee44H			; ppGame_s
?CG_CalcNamePosition@@3P6AXHPAVCVector@@PAM1@ZA DD 082112908H ; CG_CalcNamePosition
?CL_DrawTextPhysical@@3P6AXPBDHKMMMMPAMH@ZA DD 082174c78H ; CL_DrawTextPhysical
?CL_RegisterFont@@3P6AKPBDH@ZA DD 082174f88H		; CL_RegisterFont
?CL_DrawStretchPicPhysical@@3P6AXMMMMMMMMPAMK@ZA DD 082164af8H ; CL_DrawStretchPicPhysical
?Material_RegisterHandle@@3P6AKPBDH@ZA DD 082413e80H	; Material_RegisterHandle
?AimTarget_IsTargetVisible@@3P6A_NHPAUentity_t@@I@ZA DD 0820d5010H ; AimTarget_IsTargetVisible
?AimTarget_GetTagPos@@3P6AXHPAUentity_t@@IPAVCVector@@@ZA DD 0820d4c40H ; AimTarget_GetTagPos
?GScr_AllocString@@3P6AIPBD@ZA DD 082251320H		; GScr_AllocString
?OnSameTeam@@3P6AHPAUentity_t@@0@ZA DD 08226ce28H	; OnSameTeam
?PostRenderHookSave@@3P6AXH@ZA DD ?PostRenderHookSaveVar@@YAXXZ ; PostRenderHookSave
?SetTextureSave@@3P6AJPAUD3DDevice@@IPAUD3DBaseTexture@@_K@ZA DD ?SetTextureSaveVar@@YAXXZ ; SetTextureSave
?DrawIndexedVerticesSave@@3P6AJPAUD3DDevice@@HHII@ZA DD ?DrawIndexedVerticesSaveVar@@YAXXZ ; DrawIndexedVerticesSave
;	COMDAT ??_C@_1BC@GOAHBJBA@C?$AAo?$AAn?$AAt?$AAi?$AAn?$AAu?$AAe?$AA?$AA?$AA@
.rdata	SEGMENT
??_C@_1BC@GOAHBJBA@C?$AAo?$AAn?$AAt?$AAi?$AAn?$AAu?$AAe?$AA?$AA?$AA@ DB 00H
	DB	'C', 00H, 'o', 00H, 'n', 00H, 't', 00H, 'i', 00H, 'n', 00H, 'u'
	DB	00H, 'e', 00H, 00H				; `string'
;	COMDAT ?_Rank@?$_Arithmetic_traits@O@std@@2HB
.rdata	SEGMENT
?_Rank@?$_Arithmetic_traits@O@std@@2HB DD 09H		; std::_Arithmetic_traits<long double>::_Rank
;	COMDAT ?_Rank@?$_Arithmetic_traits@N@std@@2HB
.rdata	SEGMENT
?_Rank@?$_Arithmetic_traits@N@std@@2HB DD 08H		; std::_Arithmetic_traits<double>::_Rank
;	COMDAT ?_Rank@?$_Arithmetic_traits@M@std@@2HB
.rdata	SEGMENT
?_Rank@?$_Arithmetic_traits@M@std@@2HB DD 07H		; std::_Arithmetic_traits<float>::_Rank
;	COMDAT ?_Rank@?$_Arithmetic_traits@_K@std@@2HB
.rdata	SEGMENT
?_Rank@?$_Arithmetic_traits@_K@std@@2HB DD 06H		; std::_Arithmetic_traits<unsigned __int64>::_Rank
;	COMDAT ?_Rank@?$_Arithmetic_traits@_J@std@@2HB
.rdata	SEGMENT
?_Rank@?$_Arithmetic_traits@_J@std@@2HB DD 06H		; std::_Arithmetic_traits<__int64>::_Rank
;	COMDAT ?_Rank@?$_Arithmetic_traits@K@std@@2HB
.rdata	SEGMENT
?_Rank@?$_Arithmetic_traits@K@std@@2HB DD 05H		; std::_Arithmetic_traits<unsigned long>::_Rank
;	COMDAT ?_Rank@?$_Arithmetic_traits@J@std@@2HB
.rdata	SEGMENT
?_Rank@?$_Arithmetic_traits@J@std@@2HB DD 05H		; std::_Arithmetic_traits<long>::_Rank
;	COMDAT ?_Rank@?$_Arithmetic_traits@I@std@@2HB
.rdata	SEGMENT
?_Rank@?$_Arithmetic_traits@I@std@@2HB DD 04H		; std::_Arithmetic_traits<unsigned int>::_Rank
;	COMDAT ?_Rank@?$_Arithmetic_traits@H@std@@2HB
.rdata	SEGMENT
?_Rank@?$_Arithmetic_traits@H@std@@2HB DD 04H		; std::_Arithmetic_traits<int>::_Rank
;	COMDAT ?_Rank@?$_Arithmetic_traits@G@std@@2HB
.rdata	SEGMENT
?_Rank@?$_Arithmetic_traits@G@std@@2HB DD 03H		; std::_Arithmetic_traits<unsigned short>::_Rank
;	COMDAT ?_Rank@?$_Arithmetic_traits@F@std@@2HB
.rdata	SEGMENT
?_Rank@?$_Arithmetic_traits@F@std@@2HB DD 03H		; std::_Arithmetic_traits<short>::_Rank
;	COMDAT ?_Rank@?$_Arithmetic_traits@E@std@@2HB
.rdata	SEGMENT
?_Rank@?$_Arithmetic_traits@E@std@@2HB DD 02H		; std::_Arithmetic_traits<unsigned char>::_Rank
;	COMDAT ?_Rank@?$_Arithmetic_traits@C@std@@2HB
.rdata	SEGMENT
?_Rank@?$_Arithmetic_traits@C@std@@2HB DD 02H		; std::_Arithmetic_traits<signed char>::_Rank
;	COMDAT ?_Rank@?$_Arithmetic_traits@D@std@@2HB
.rdata	SEGMENT
?_Rank@?$_Arithmetic_traits@D@std@@2HB DD 02H		; std::_Arithmetic_traits<char>::_Rank
;	COMDAT ?_Rank@?$_Arithmetic_traits@_N@std@@2HB
.rdata	SEGMENT
?_Rank@?$_Arithmetic_traits@_N@std@@2HB DD 01H		; std::_Arithmetic_traits<bool>::_Rank
;	COMDAT ?value@?$integral_constant@I$0A@@tr1@std@@2IB
.rdata	SEGMENT
?value@?$integral_constant@I$0A@@tr1@std@@2IB DD 00H	; std::tr1::integral_constant<unsigned int,0>::value
;	COMDAT ?value@?$integral_constant@_N$00@tr1@std@@2_NB
.rdata	SEGMENT
?value@?$integral_constant@_N$00@tr1@std@@2_NB DB 01H	; std::tr1::integral_constant<bool,1>::value
;	COMDAT ?value@?$integral_constant@_N$0A@@tr1@std@@2_NB
.rdata	SEGMENT
?value@?$integral_constant@_N$0A@@tr1@std@@2_NB DB 00H	; std::tr1::integral_constant<bool,0>::value
;	COMDAT ?min_exponent10@?$numeric_limits@O@std@@2HB
.rdata	SEGMENT
?min_exponent10@?$numeric_limits@O@std@@2HB DD 0fffffecdH ; std::numeric_limits<long double>::min_exponent10
;	COMDAT ?min_exponent@?$numeric_limits@O@std@@2HB
.rdata	SEGMENT
?min_exponent@?$numeric_limits@O@std@@2HB DD 0fffffc03H	; std::numeric_limits<long double>::min_exponent
;	COMDAT ?max_exponent10@?$numeric_limits@O@std@@2HB
.rdata	SEGMENT
?max_exponent10@?$numeric_limits@O@std@@2HB DD 0134H	; std::numeric_limits<long double>::max_exponent10
;	COMDAT ?max_exponent@?$numeric_limits@O@std@@2HB
.rdata	SEGMENT
?max_exponent@?$numeric_limits@O@std@@2HB DD 0400H	; std::numeric_limits<long double>::max_exponent
;	COMDAT ?max_digits10@?$numeric_limits@O@std@@2HB
.rdata	SEGMENT
?max_digits10@?$numeric_limits@O@std@@2HB DD 011H	; std::numeric_limits<long double>::max_digits10
;	COMDAT ?digits10@?$numeric_limits@O@std@@2HB
.rdata	SEGMENT
?digits10@?$numeric_limits@O@std@@2HB DD 0fH		; std::numeric_limits<long double>::digits10
;	COMDAT ?digits@?$numeric_limits@O@std@@2HB
.rdata	SEGMENT
?digits@?$numeric_limits@O@std@@2HB DD 035H		; std::numeric_limits<long double>::digits
;	COMDAT ?min_exponent10@?$numeric_limits@N@std@@2HB
.rdata	SEGMENT
?min_exponent10@?$numeric_limits@N@std@@2HB DD 0fffffecdH ; std::numeric_limits<double>::min_exponent10
;	COMDAT ?min_exponent@?$numeric_limits@N@std@@2HB
.rdata	SEGMENT
?min_exponent@?$numeric_limits@N@std@@2HB DD 0fffffc03H	; std::numeric_limits<double>::min_exponent
;	COMDAT ?max_exponent10@?$numeric_limits@N@std@@2HB
.rdata	SEGMENT
?max_exponent10@?$numeric_limits@N@std@@2HB DD 0134H	; std::numeric_limits<double>::max_exponent10
;	COMDAT ?max_exponent@?$numeric_limits@N@std@@2HB
.rdata	SEGMENT
?max_exponent@?$numeric_limits@N@std@@2HB DD 0400H	; std::numeric_limits<double>::max_exponent
;	COMDAT ?max_digits10@?$numeric_limits@N@std@@2HB
.rdata	SEGMENT
?max_digits10@?$numeric_limits@N@std@@2HB DD 011H	; std::numeric_limits<double>::max_digits10
;	COMDAT ?digits10@?$numeric_limits@N@std@@2HB
.rdata	SEGMENT
?digits10@?$numeric_limits@N@std@@2HB DD 0fH		; std::numeric_limits<double>::digits10
;	COMDAT ?digits@?$numeric_limits@N@std@@2HB
.rdata	SEGMENT
?digits@?$numeric_limits@N@std@@2HB DD 035H		; std::numeric_limits<double>::digits
;	COMDAT ?min_exponent10@?$numeric_limits@M@std@@2HB
.rdata	SEGMENT
?min_exponent10@?$numeric_limits@M@std@@2HB DD 0ffffffdbH ; std::numeric_limits<float>::min_exponent10
;	COMDAT ?min_exponent@?$numeric_limits@M@std@@2HB
.rdata	SEGMENT
?min_exponent@?$numeric_limits@M@std@@2HB DD 0ffffff83H	; std::numeric_limits<float>::min_exponent
;	COMDAT ?max_exponent10@?$numeric_limits@M@std@@2HB
.rdata	SEGMENT
?max_exponent10@?$numeric_limits@M@std@@2HB DD 026H	; std::numeric_limits<float>::max_exponent10
;	COMDAT ?max_exponent@?$numeric_limits@M@std@@2HB
.rdata	SEGMENT
?max_exponent@?$numeric_limits@M@std@@2HB DD 080H	; std::numeric_limits<float>::max_exponent
;	COMDAT ?max_digits10@?$numeric_limits@M@std@@2HB
.rdata	SEGMENT
?max_digits10@?$numeric_limits@M@std@@2HB DD 08H	; std::numeric_limits<float>::max_digits10
;	COMDAT ?digits10@?$numeric_limits@M@std@@2HB
.rdata	SEGMENT
?digits10@?$numeric_limits@M@std@@2HB DD 06H		; std::numeric_limits<float>::digits10
;	COMDAT ?digits@?$numeric_limits@M@std@@2HB
.rdata	SEGMENT
?digits@?$numeric_limits@M@std@@2HB DD 018H		; std::numeric_limits<float>::digits
;	COMDAT ?max_digits10@?$numeric_limits@_K@std@@2HB
.rdata	SEGMENT
?max_digits10@?$numeric_limits@_K@std@@2HB DD 015H	; std::numeric_limits<unsigned __int64>::max_digits10
;	COMDAT ?digits10@?$numeric_limits@_K@std@@2HB
.rdata	SEGMENT
?digits10@?$numeric_limits@_K@std@@2HB DD 013H		; std::numeric_limits<unsigned __int64>::digits10
;	COMDAT ?digits@?$numeric_limits@_K@std@@2HB
.rdata	SEGMENT
?digits@?$numeric_limits@_K@std@@2HB DD 040H		; std::numeric_limits<unsigned __int64>::digits
;	COMDAT ?is_signed@?$numeric_limits@_K@std@@2_NB
.rdata	SEGMENT
?is_signed@?$numeric_limits@_K@std@@2_NB DB 00H		; std::numeric_limits<unsigned __int64>::is_signed
;	COMDAT ?max_digits10@?$numeric_limits@_J@std@@2HB
.rdata	SEGMENT
?max_digits10@?$numeric_limits@_J@std@@2HB DD 014H	; std::numeric_limits<__int64>::max_digits10
;	COMDAT ?digits10@?$numeric_limits@_J@std@@2HB
.rdata	SEGMENT
?digits10@?$numeric_limits@_J@std@@2HB DD 012H		; std::numeric_limits<__int64>::digits10
;	COMDAT ?digits@?$numeric_limits@_J@std@@2HB
.rdata	SEGMENT
?digits@?$numeric_limits@_J@std@@2HB DD 03fH		; std::numeric_limits<__int64>::digits
;	COMDAT ?is_signed@?$numeric_limits@_J@std@@2_NB
.rdata	SEGMENT
?is_signed@?$numeric_limits@_J@std@@2_NB DB 01H		; std::numeric_limits<__int64>::is_signed
;	COMDAT ?max_digits10@?$numeric_limits@K@std@@2HB
.rdata	SEGMENT
?max_digits10@?$numeric_limits@K@std@@2HB DD 0bH	; std::numeric_limits<unsigned long>::max_digits10
;	COMDAT ?digits10@?$numeric_limits@K@std@@2HB
.rdata	SEGMENT
?digits10@?$numeric_limits@K@std@@2HB DD 09H		; std::numeric_limits<unsigned long>::digits10
;	COMDAT ?digits@?$numeric_limits@K@std@@2HB
.rdata	SEGMENT
?digits@?$numeric_limits@K@std@@2HB DD 020H		; std::numeric_limits<unsigned long>::digits
;	COMDAT ?is_signed@?$numeric_limits@K@std@@2_NB
.rdata	SEGMENT
?is_signed@?$numeric_limits@K@std@@2_NB DB 00H		; std::numeric_limits<unsigned long>::is_signed
;	COMDAT ?max_digits10@?$numeric_limits@J@std@@2HB
.rdata	SEGMENT
?max_digits10@?$numeric_limits@J@std@@2HB DD 0bH	; std::numeric_limits<long>::max_digits10
;	COMDAT ?digits10@?$numeric_limits@J@std@@2HB
.rdata	SEGMENT
?digits10@?$numeric_limits@J@std@@2HB DD 09H		; std::numeric_limits<long>::digits10
;	COMDAT ?digits@?$numeric_limits@J@std@@2HB
.rdata	SEGMENT
?digits@?$numeric_limits@J@std@@2HB DD 01fH		; std::numeric_limits<long>::digits
;	COMDAT ?is_signed@?$numeric_limits@J@std@@2_NB
.rdata	SEGMENT
?is_signed@?$numeric_limits@J@std@@2_NB DB 01H		; std::numeric_limits<long>::is_signed
;	COMDAT ?max_digits10@?$numeric_limits@I@std@@2HB
.rdata	SEGMENT
?max_digits10@?$numeric_limits@I@std@@2HB DD 0bH	; std::numeric_limits<unsigned int>::max_digits10
;	COMDAT ?digits10@?$numeric_limits@I@std@@2HB
.rdata	SEGMENT
?digits10@?$numeric_limits@I@std@@2HB DD 09H		; std::numeric_limits<unsigned int>::digits10
;	COMDAT ?digits@?$numeric_limits@I@std@@2HB
.rdata	SEGMENT
?digits@?$numeric_limits@I@std@@2HB DD 020H		; std::numeric_limits<unsigned int>::digits
;	COMDAT ?is_signed@?$numeric_limits@I@std@@2_NB
.rdata	SEGMENT
?is_signed@?$numeric_limits@I@std@@2_NB DB 00H		; std::numeric_limits<unsigned int>::is_signed
;	COMDAT ?max_digits10@?$numeric_limits@H@std@@2HB
.rdata	SEGMENT
?max_digits10@?$numeric_limits@H@std@@2HB DD 0bH	; std::numeric_limits<int>::max_digits10
;	COMDAT ?digits10@?$numeric_limits@H@std@@2HB
.rdata	SEGMENT
?digits10@?$numeric_limits@H@std@@2HB DD 09H		; std::numeric_limits<int>::digits10
;	COMDAT ?digits@?$numeric_limits@H@std@@2HB
.rdata	SEGMENT
?digits@?$numeric_limits@H@std@@2HB DD 01fH		; std::numeric_limits<int>::digits
;	COMDAT ?is_signed@?$numeric_limits@H@std@@2_NB
.rdata	SEGMENT
?is_signed@?$numeric_limits@H@std@@2_NB DB 01H		; std::numeric_limits<int>::is_signed
;	COMDAT ?max_digits10@?$numeric_limits@G@std@@2HB
.rdata	SEGMENT
?max_digits10@?$numeric_limits@G@std@@2HB DD 06H	; std::numeric_limits<unsigned short>::max_digits10
;	COMDAT ?digits10@?$numeric_limits@G@std@@2HB
.rdata	SEGMENT
?digits10@?$numeric_limits@G@std@@2HB DD 04H		; std::numeric_limits<unsigned short>::digits10
;	COMDAT ?digits@?$numeric_limits@G@std@@2HB
.rdata	SEGMENT
?digits@?$numeric_limits@G@std@@2HB DD 010H		; std::numeric_limits<unsigned short>::digits
;	COMDAT ?is_signed@?$numeric_limits@G@std@@2_NB
.rdata	SEGMENT
?is_signed@?$numeric_limits@G@std@@2_NB DB 00H		; std::numeric_limits<unsigned short>::is_signed
;	COMDAT ?max_digits10@?$numeric_limits@F@std@@2HB
.rdata	SEGMENT
?max_digits10@?$numeric_limits@F@std@@2HB DD 06H	; std::numeric_limits<short>::max_digits10
;	COMDAT ?digits10@?$numeric_limits@F@std@@2HB
.rdata	SEGMENT
?digits10@?$numeric_limits@F@std@@2HB DD 04H		; std::numeric_limits<short>::digits10
;	COMDAT ?digits@?$numeric_limits@F@std@@2HB
.rdata	SEGMENT
?digits@?$numeric_limits@F@std@@2HB DD 0fH		; std::numeric_limits<short>::digits
;	COMDAT ?is_signed@?$numeric_limits@F@std@@2_NB
.rdata	SEGMENT
?is_signed@?$numeric_limits@F@std@@2_NB DB 01H		; std::numeric_limits<short>::is_signed
;	COMDAT ?max_digits10@?$numeric_limits@E@std@@2HB
.rdata	SEGMENT
?max_digits10@?$numeric_limits@E@std@@2HB DD 04H	; std::numeric_limits<unsigned char>::max_digits10
;	COMDAT ?digits10@?$numeric_limits@E@std@@2HB
.rdata	SEGMENT
?digits10@?$numeric_limits@E@std@@2HB DD 02H		; std::numeric_limits<unsigned char>::digits10
;	COMDAT ?digits@?$numeric_limits@E@std@@2HB
.rdata	SEGMENT
?digits@?$numeric_limits@E@std@@2HB DD 08H		; std::numeric_limits<unsigned char>::digits
;	COMDAT ?is_signed@?$numeric_limits@E@std@@2_NB
.rdata	SEGMENT
?is_signed@?$numeric_limits@E@std@@2_NB DB 00H		; std::numeric_limits<unsigned char>::is_signed
;	COMDAT ?max_digits10@?$numeric_limits@C@std@@2HB
.rdata	SEGMENT
?max_digits10@?$numeric_limits@C@std@@2HB DD 04H	; std::numeric_limits<signed char>::max_digits10
;	COMDAT ?digits10@?$numeric_limits@C@std@@2HB
.rdata	SEGMENT
?digits10@?$numeric_limits@C@std@@2HB DD 02H		; std::numeric_limits<signed char>::digits10
;	COMDAT ?digits@?$numeric_limits@C@std@@2HB
.rdata	SEGMENT
?digits@?$numeric_limits@C@std@@2HB DD 07H		; std::numeric_limits<signed char>::digits
;	COMDAT ?is_signed@?$numeric_limits@C@std@@2_NB
.rdata	SEGMENT
?is_signed@?$numeric_limits@C@std@@2_NB DB 01H		; std::numeric_limits<signed char>::is_signed
;	COMDAT ?max_digits10@?$numeric_limits@_N@std@@2HB
.rdata	SEGMENT
?max_digits10@?$numeric_limits@_N@std@@2HB DD 00H	; std::numeric_limits<bool>::max_digits10
;	COMDAT ?digits10@?$numeric_limits@_N@std@@2HB
.rdata	SEGMENT
?digits10@?$numeric_limits@_N@std@@2HB DD 00H		; std::numeric_limits<bool>::digits10
;	COMDAT ?digits@?$numeric_limits@_N@std@@2HB
.rdata	SEGMENT
?digits@?$numeric_limits@_N@std@@2HB DD 01H		; std::numeric_limits<bool>::digits
;	COMDAT ?is_signed@?$numeric_limits@_N@std@@2_NB
.rdata	SEGMENT
?is_signed@?$numeric_limits@_N@std@@2_NB DB 00H		; std::numeric_limits<bool>::is_signed
;	COMDAT ?is_modulo@?$numeric_limits@_N@std@@2_NB
.rdata	SEGMENT
?is_modulo@?$numeric_limits@_N@std@@2_NB DB 00H		; std::numeric_limits<bool>::is_modulo
;	COMDAT ?max_digits10@?$numeric_limits@_W@std@@2HB
.rdata	SEGMENT
?max_digits10@?$numeric_limits@_W@std@@2HB DD 06H	; std::numeric_limits<wchar_t>::max_digits10
;	COMDAT ?digits10@?$numeric_limits@_W@std@@2HB
.rdata	SEGMENT
?digits10@?$numeric_limits@_W@std@@2HB DD 04H		; std::numeric_limits<wchar_t>::digits10
;	COMDAT ?digits@?$numeric_limits@_W@std@@2HB
.rdata	SEGMENT
?digits@?$numeric_limits@_W@std@@2HB DD 010H		; std::numeric_limits<wchar_t>::digits
;	COMDAT ?is_signed@?$numeric_limits@_W@std@@2_NB
.rdata	SEGMENT
?is_signed@?$numeric_limits@_W@std@@2_NB DB 00H		; std::numeric_limits<wchar_t>::is_signed
;	COMDAT ?max_digits10@?$numeric_limits@D@std@@2HB
.rdata	SEGMENT
?max_digits10@?$numeric_limits@D@std@@2HB DD 04H	; std::numeric_limits<char>::max_digits10
;	COMDAT ?digits10@?$numeric_limits@D@std@@2HB
.rdata	SEGMENT
?digits10@?$numeric_limits@D@std@@2HB DD 02H		; std::numeric_limits<char>::digits10
;	COMDAT ?digits@?$numeric_limits@D@std@@2HB
.rdata	SEGMENT
?digits@?$numeric_limits@D@std@@2HB DD 07H		; std::numeric_limits<char>::digits
;	COMDAT ?is_signed@?$numeric_limits@D@std@@2_NB
.rdata	SEGMENT
?is_signed@?$numeric_limits@D@std@@2_NB DB 01H		; std::numeric_limits<char>::is_signed
;	COMDAT ?radix@_Num_float_base@std@@2HB
.rdata	SEGMENT
?radix@_Num_float_base@std@@2HB DD 02H			; std::_Num_float_base::radix
;	COMDAT ?round_style@_Num_float_base@std@@2W4float_round_style@2@B
.rdata	SEGMENT
?round_style@_Num_float_base@std@@2W4float_round_style@2@B DD 01H ; std::_Num_float_base::round_style
;	COMDAT ?traps@_Num_float_base@std@@2_NB
.rdata	SEGMENT
?traps@_Num_float_base@std@@2_NB DB 01H			; std::_Num_float_base::traps
;	COMDAT ?tinyness_before@_Num_float_base@std@@2_NB
.rdata	SEGMENT
?tinyness_before@_Num_float_base@std@@2_NB DB 01H	; std::_Num_float_base::tinyness_before
;	COMDAT ?is_specialized@_Num_float_base@std@@2_NB
.rdata	SEGMENT
?is_specialized@_Num_float_base@std@@2_NB DB 01H	; std::_Num_float_base::is_specialized
;	COMDAT ?is_signed@_Num_float_base@std@@2_NB
.rdata	SEGMENT
?is_signed@_Num_float_base@std@@2_NB DB 01H		; std::_Num_float_base::is_signed
;	COMDAT ?is_modulo@_Num_float_base@std@@2_NB
.rdata	SEGMENT
?is_modulo@_Num_float_base@std@@2_NB DB 00H		; std::_Num_float_base::is_modulo
;	COMDAT ?is_integer@_Num_float_base@std@@2_NB
.rdata	SEGMENT
?is_integer@_Num_float_base@std@@2_NB DB 00H		; std::_Num_float_base::is_integer
;	COMDAT ?is_iec559@_Num_float_base@std@@2_NB
.rdata	SEGMENT
?is_iec559@_Num_float_base@std@@2_NB DB 01H		; std::_Num_float_base::is_iec559
;	COMDAT ?is_exact@_Num_float_base@std@@2_NB
.rdata	SEGMENT
?is_exact@_Num_float_base@std@@2_NB DB 00H		; std::_Num_float_base::is_exact
;	COMDAT ?is_bounded@_Num_float_base@std@@2_NB
.rdata	SEGMENT
?is_bounded@_Num_float_base@std@@2_NB DB 01H		; std::_Num_float_base::is_bounded
;	COMDAT ?has_signaling_NaN@_Num_float_base@std@@2_NB
.rdata	SEGMENT
?has_signaling_NaN@_Num_float_base@std@@2_NB DB 01H	; std::_Num_float_base::has_signaling_NaN
;	COMDAT ?has_quiet_NaN@_Num_float_base@std@@2_NB
.rdata	SEGMENT
?has_quiet_NaN@_Num_float_base@std@@2_NB DB 01H		; std::_Num_float_base::has_quiet_NaN
;	COMDAT ?has_infinity@_Num_float_base@std@@2_NB
.rdata	SEGMENT
?has_infinity@_Num_float_base@std@@2_NB DB 01H		; std::_Num_float_base::has_infinity
;	COMDAT ?has_denorm_loss@_Num_float_base@std@@2_NB
.rdata	SEGMENT
?has_denorm_loss@_Num_float_base@std@@2_NB DB 01H	; std::_Num_float_base::has_denorm_loss
;	COMDAT ?has_denorm@_Num_float_base@std@@2W4float_denorm_style@2@B
.rdata	SEGMENT
?has_denorm@_Num_float_base@std@@2W4float_denorm_style@2@B DD 01H ; std::_Num_float_base::has_denorm
;	COMDAT ?radix@_Num_int_base@std@@2HB
.rdata	SEGMENT
?radix@_Num_int_base@std@@2HB DD 02H			; std::_Num_int_base::radix
;	COMDAT ?is_specialized@_Num_int_base@std@@2_NB
.rdata	SEGMENT
?is_specialized@_Num_int_base@std@@2_NB DB 01H		; std::_Num_int_base::is_specialized
;	COMDAT ?is_modulo@_Num_int_base@std@@2_NB
.rdata	SEGMENT
?is_modulo@_Num_int_base@std@@2_NB DB 01H		; std::_Num_int_base::is_modulo
;	COMDAT ?is_integer@_Num_int_base@std@@2_NB
.rdata	SEGMENT
?is_integer@_Num_int_base@std@@2_NB DB 01H		; std::_Num_int_base::is_integer
;	COMDAT ?is_exact@_Num_int_base@std@@2_NB
.rdata	SEGMENT
?is_exact@_Num_int_base@std@@2_NB DB 01H		; std::_Num_int_base::is_exact
;	COMDAT ?is_bounded@_Num_int_base@std@@2_NB
.rdata	SEGMENT
?is_bounded@_Num_int_base@std@@2_NB DB 01H		; std::_Num_int_base::is_bounded
;	COMDAT ?radix@_Num_base@std@@2HB
.rdata	SEGMENT
?radix@_Num_base@std@@2HB DD 00H			; std::_Num_base::radix
;	COMDAT ?min_exponent10@_Num_base@std@@2HB
.rdata	SEGMENT
?min_exponent10@_Num_base@std@@2HB DD 00H		; std::_Num_base::min_exponent10
;	COMDAT ?min_exponent@_Num_base@std@@2HB
.rdata	SEGMENT
?min_exponent@_Num_base@std@@2HB DD 00H			; std::_Num_base::min_exponent
;	COMDAT ?max_exponent10@_Num_base@std@@2HB
.rdata	SEGMENT
?max_exponent10@_Num_base@std@@2HB DD 00H		; std::_Num_base::max_exponent10
;	COMDAT ?max_exponent@_Num_base@std@@2HB
.rdata	SEGMENT
?max_exponent@_Num_base@std@@2HB DD 00H			; std::_Num_base::max_exponent
;	COMDAT ?max_digits10@_Num_base@std@@2HB
.rdata	SEGMENT
?max_digits10@_Num_base@std@@2HB DD 00H			; std::_Num_base::max_digits10
;	COMDAT ?digits10@_Num_base@std@@2HB
.rdata	SEGMENT
?digits10@_Num_base@std@@2HB DD 00H			; std::_Num_base::digits10
;	COMDAT ?digits@_Num_base@std@@2HB
.rdata	SEGMENT
?digits@_Num_base@std@@2HB DD 00H			; std::_Num_base::digits
;	COMDAT ?round_style@_Num_base@std@@2W4float_round_style@2@B
.rdata	SEGMENT
?round_style@_Num_base@std@@2W4float_round_style@2@B DD 00H ; std::_Num_base::round_style
;	COMDAT ?traps@_Num_base@std@@2_NB
.rdata	SEGMENT
?traps@_Num_base@std@@2_NB DB 00H			; std::_Num_base::traps
;	COMDAT ?tinyness_before@_Num_base@std@@2_NB
.rdata	SEGMENT
?tinyness_before@_Num_base@std@@2_NB DB 00H		; std::_Num_base::tinyness_before
;	COMDAT ?is_specialized@_Num_base@std@@2_NB
.rdata	SEGMENT
?is_specialized@_Num_base@std@@2_NB DB 00H		; std::_Num_base::is_specialized
;	COMDAT ?is_signed@_Num_base@std@@2_NB
.rdata	SEGMENT
?is_signed@_Num_base@std@@2_NB DB 00H			; std::_Num_base::is_signed
;	COMDAT ?is_modulo@_Num_base@std@@2_NB
.rdata	SEGMENT
?is_modulo@_Num_base@std@@2_NB DB 00H			; std::_Num_base::is_modulo
;	COMDAT ?is_integer@_Num_base@std@@2_NB
.rdata	SEGMENT
?is_integer@_Num_base@std@@2_NB DB 00H			; std::_Num_base::is_integer
;	COMDAT ?is_iec559@_Num_base@std@@2_NB
.rdata	SEGMENT
?is_iec559@_Num_base@std@@2_NB DB 00H			; std::_Num_base::is_iec559
;	COMDAT ?is_exact@_Num_base@std@@2_NB
.rdata	SEGMENT
?is_exact@_Num_base@std@@2_NB DB 00H			; std::_Num_base::is_exact
;	COMDAT ?is_bounded@_Num_base@std@@2_NB
.rdata	SEGMENT
?is_bounded@_Num_base@std@@2_NB DB 00H			; std::_Num_base::is_bounded
;	COMDAT ?has_signaling_NaN@_Num_base@std@@2_NB
.rdata	SEGMENT
?has_signaling_NaN@_Num_base@std@@2_NB DB 00H		; std::_Num_base::has_signaling_NaN
;	COMDAT ?has_quiet_NaN@_Num_base@std@@2_NB
.rdata	SEGMENT
?has_quiet_NaN@_Num_base@std@@2_NB DB 00H		; std::_Num_base::has_quiet_NaN
;	COMDAT ?has_infinity@_Num_base@std@@2_NB
.rdata	SEGMENT
?has_infinity@_Num_base@std@@2_NB DB 00H		; std::_Num_base::has_infinity
;	COMDAT ?has_denorm_loss@_Num_base@std@@2_NB
.rdata	SEGMENT
?has_denorm_loss@_Num_base@std@@2_NB DB 00H		; std::_Num_base::has_denorm_loss
;	COMDAT ?has_denorm@_Num_base@std@@2W4float_denorm_style@2@B
.rdata	SEGMENT
?has_denorm@_Num_base@std@@2W4float_denorm_style@2@B DD 00H ; std::_Num_base::has_denorm
;	COMDAT ?g_XMUnsignedFix@@3UXMVECTORF32@@B
.rdata	SEGMENT
?g_XMUnsignedFix@@3UXMVECTORF32@@B DD 04f000000r ; 2.14748e+009 ; g_XMUnsignedFix
	DD	04f000000r			; 2.14748e+009
	DD	04f000000r			; 2.14748e+009
	DD	04f000000r			; 2.14748e+009
;	COMDAT ?g_XMMaxUInt@@3UXMVECTORF32@@B
.rdata	SEGMENT
?g_XMMaxUInt@@3UXMVECTORF32@@B DD 04f7fffffr	; 4.29497e+009 ; g_XMMaxUInt
	DD	04f7fffffr			; 4.29497e+009
	DD	04f7fffffr			; 4.29497e+009
	DD	04f7fffffr			; 4.29497e+009
;	COMDAT ?g_XMMaxInt@@3UXMVECTORF32@@B
.rdata	SEGMENT
?g_XMMaxInt@@3UXMVECTORF32@@B DD 04effffffr	; 2.14748e+009 ; g_XMMaxInt
	DD	04effffffr			; 2.14748e+009
	DD	04effffffr			; 2.14748e+009
	DD	04effffffr			; 2.14748e+009
;	COMDAT ?g_XMFixUnsigned@@3UXMVECTORF32@@B
.rdata	SEGMENT
?g_XMFixUnsigned@@3UXMVECTORF32@@B DD 04f000000r ; 2.14748e+009 ; g_XMFixUnsigned
	DD	04f000000r			; 2.14748e+009
	DD	04f000000r			; 2.14748e+009
	DD	04f000000r			; 2.14748e+009
;	COMDAT ?g_XMAddByte4@@3UXMVECTORF32@@B
.rdata	SEGMENT
?g_XMAddByte4@@3UXMVECTORF32@@B DD 0c3000000r	; -128	; g_XMAddByte4
	DD	0c7000000r			; -32768
	DD	0cb000000r			; -8.38861e+006
	DD	000000000r			; 0
;	COMDAT ?g_XMXorByte4@@3UXMVECTORI32@@B
.rdata	SEGMENT
?g_XMXorByte4@@3UXMVECTORI32@@B DD 080H			; g_XMXorByte4
	DD	08000H
	DD	0800000H
	DD	00H
;	COMDAT ?g_XMMaskByte4@@3UXMVECTORI32@@B
.rdata	SEGMENT
?g_XMMaskByte4@@3UXMVECTORI32@@B DD 0ffH		; g_XMMaskByte4
	DD	0ff00H
	DD	0ff0000H
	DD	0ff000000H
;	COMDAT ?g_XMMulDec4@@3UXMVECTORF32@@B
.rdata	SEGMENT
?g_XMMulDec4@@3UXMVECTORF32@@B DD 03f800000r	; 1	; g_XMMulDec4
	DD	03a800000r			; 0.000976563
	DD	035800000r			; 9.53674e-007
	DD	030800000r			; 9.31323e-010
;	COMDAT ?g_XMAddDec4@@3UXMVECTORF32@@B
.rdata	SEGMENT
?g_XMAddDec4@@3UXMVECTORF32@@B DD 0c4000000r	; -512	; g_XMAddDec4
	DD	0c9000000r			; -524288
	DD	0ce000000r			; -5.36871e+008
	DD	000000000r			; 0
;	COMDAT ?g_XMAddUDec4@@3UXMVECTORF32@@B
.rdata	SEGMENT
?g_XMAddUDec4@@3UXMVECTORF32@@B DD 000000000r	; 0	; g_XMAddUDec4
	DD	000000000r			; 0
	DD	000000000r			; 0
	DD	04f000000r			; 2.14748e+009
;	COMDAT ?g_XMXorDec4@@3UXMVECTORI32@@B
.rdata	SEGMENT
?g_XMXorDec4@@3UXMVECTORI32@@B DD 0200H			; g_XMXorDec4
	DD	080000H
	DD	020000000H
	DD	00H
;	COMDAT ?g_XMMaskDec4@@3UXMVECTORI32@@B
.rdata	SEGMENT
?g_XMMaskDec4@@3UXMVECTORI32@@B DD 03ffH		; g_XMMaskDec4
	DD	0ffc00H
	DD	03ff00000H
	DD	0c0000000H
;	COMDAT ?g_XMMulIco4@@3UXMVECTORF32@@B
.rdata	SEGMENT
?g_XMMulIco4@@3UXMVECTORF32@@B DD 03f800000r	; 1	; g_XMMulIco4
	DD	039800000r			; 0.000244141
	DD	03f800000r			; 1
	DD	031800000r			; 3.72529e-009
;	COMDAT ?g_XMAddIco4@@3UXMVECTORF32@@B
.rdata	SEGMENT
?g_XMAddIco4@@3UXMVECTORF32@@B DD 0c9000000r	; -524288 ; g_XMAddIco4
	DD	000000000r			; 0
	DD	0c9000000r			; -524288
	DD	000000000r			; 0
;	COMDAT ?g_XMAddUIco4@@3UXMVECTORF32@@B
.rdata	SEGMENT
?g_XMAddUIco4@@3UXMVECTORF32@@B DD 000000000r	; 0	; g_XMAddUIco4
	DD	04f000000r			; 2.14748e+009
	DD	000000000r			; 0
	DD	04f000000r			; 2.14748e+009
;	COMDAT ?g_XMAddXIco4@@3UXMVECTORF32@@B
.rdata	SEGMENT
?g_XMAddXIco4@@3UXMVECTORF32@@B DD 0c9000000r	; -524288 ; g_XMAddXIco4
	DD	000000000r			; 0
	DD	0c9000000r			; -524288
	DD	04f000000r			; 2.14748e+009
;	COMDAT ?g_XMXorIco4@@3UXMVECTORI32@@B
.rdata	SEGMENT
?g_XMXorIco4@@3UXMVECTORI32@@B DD 080000H		; g_XMXorIco4
	DD	00H
	DD	080000H
	DD	00H
;	COMDAT ?g_XMXorXIco4@@3UXMVECTORI32@@B
.rdata	SEGMENT
?g_XMXorXIco4@@3UXMVECTORI32@@B DD 080000H		; g_XMXorXIco4
	DD	00H
	DD	080000H
	DD	080000000H
;	COMDAT ?g_XMMaskIco4@@3UXMVECTORI32@@B
.rdata	SEGMENT
?g_XMMaskIco4@@3UXMVECTORI32@@B DD 0fffffH		; g_XMMaskIco4
	DD	0fffff000H
	DD	0fffffH
	DD	0f0000000H
;	COMDAT ?g_XMXorDHen3@@3UXMVECTORI32@@B
.rdata	SEGMENT
?g_XMXorDHen3@@3UXMVECTORI32@@B DD 0200H		; g_XMXorDHen3
	DD	0100000H
	DD	00H
	DD	00H
;	COMDAT ?g_XMXorHenD3@@3UXMVECTORI32@@B
.rdata	SEGMENT
?g_XMXorHenD3@@3UXMVECTORI32@@B DD 0400H		; g_XMXorHenD3
	DD	0200000H
	DD	00H
	DD	00H
;	COMDAT ?g_XMMulDHen3@@3UXMVECTORF32@@B
.rdata	SEGMENT
?g_XMMulDHen3@@3UXMVECTORF32@@B DD 03f800000r	; 1	; g_XMMulDHen3
	DD	03a800000r			; 0.000976563
	DD	035000000r			; 4.76837e-007
	DD	000000000r			; 0
;	COMDAT ?g_XMMulHenD3@@3UXMVECTORF32@@B
.rdata	SEGMENT
?g_XMMulHenD3@@3UXMVECTORF32@@B DD 03f800000r	; 1	; g_XMMulHenD3
	DD	03a000000r			; 0.000488281
	DD	034800000r			; 2.38419e-007
	DD	000000000r			; 0
;	COMDAT ?g_XMAddDHen3@@3UXMVECTORF32@@B
.rdata	SEGMENT
?g_XMAddDHen3@@3UXMVECTORF32@@B DD 0c4000000r	; -512	; g_XMAddDHen3
	DD	0c9800000r			; -1.04858e+006
	DD	000000000r			; 0
	DD	000000000r			; 0
;	COMDAT ?g_XMAddHenD3@@3UXMVECTORF32@@B
.rdata	SEGMENT
?g_XMAddHenD3@@3UXMVECTORF32@@B DD 0c4800000r	; -1024	; g_XMAddHenD3
	DD	0ca000000r			; -2.09715e+006
	DD	000000000r			; 0
	DD	000000000r			; 0
;	COMDAT ?g_XMAddUHenD3@@3UXMVECTORF32@@B
.rdata	SEGMENT
?g_XMAddUHenD3@@3UXMVECTORF32@@B DD 000000000r	; 0	; g_XMAddUHenD3
	DD	000000000r			; 0
	DD	04f000000r			; 2.14748e+009
	DD	000000000r			; 0
;	COMDAT ?g_XMMaskDHen3@@3UXMVECTORI32@@B
.rdata	SEGMENT
?g_XMMaskDHen3@@3UXMVECTORI32@@B DD 03ffH		; g_XMMaskDHen3
	DD	01ffc00H
	DD	0ffe00000H
	DD	00H
;	COMDAT ?g_XMMaskHenD3@@3UXMVECTORI32@@B
.rdata	SEGMENT
?g_XMMaskHenD3@@3UXMVECTORI32@@B DD 07ffH		; g_XMMaskHenD3
	DD	03ff800H
	DD	0ffc00000H
	DD	00H
;	COMDAT ?g_XMFlipYW@@3UXMVECTORI32@@B
.rdata	SEGMENT
?g_XMFlipYW@@3UXMVECTORI32@@B DD 00H			; g_XMFlipYW
	DD	080000000H
	DD	00H
	DD	080000000H
;	COMDAT ?g_XMFlipZW@@3UXMVECTORI32@@B
.rdata	SEGMENT
?g_XMFlipZW@@3UXMVECTORI32@@B DD 00H			; g_XMFlipZW
	DD	00H
	DD	080000000H
	DD	080000000H
;	COMDAT ?g_XMFlipYZ@@3UXMVECTORI32@@B
.rdata	SEGMENT
?g_XMFlipYZ@@3UXMVECTORI32@@B DD 00H			; g_XMFlipYZ
	DD	080000000H
	DD	080000000H
	DD	00H
;	COMDAT ?g_XMFlipW@@3UXMVECTORI32@@B
.rdata	SEGMENT
?g_XMFlipW@@3UXMVECTORI32@@B DD 00H			; g_XMFlipW
	DD	00H
	DD	00H
	DD	080000000H
;	COMDAT ?g_XMFlipZ@@3UXMVECTORI32@@B
.rdata	SEGMENT
?g_XMFlipZ@@3UXMVECTORI32@@B DD 00H			; g_XMFlipZ
	DD	00H
	DD	080000000H
	DD	00H
;	COMDAT ?g_XMFlipY@@3UXMVECTORI32@@B
.rdata	SEGMENT
?g_XMFlipY@@3UXMVECTORI32@@B DD 00H			; g_XMFlipY
	DD	080000000H
	DD	00H
	DD	00H
;	COMDAT ?g_XMFixupY16W16@@3UXMVECTORF32@@B
.rdata	SEGMENT
?g_XMFixupY16W16@@3UXMVECTORF32@@B DD 03f800000r ; 1	; g_XMFixupY16W16
	DD	03f800000r			; 1
	DD	037800000r			; 1.52588e-005
	DD	037800000r			; 1.52588e-005
;	COMDAT ?g_XMFixupY16@@3UXMVECTORF32@@B
.rdata	SEGMENT
?g_XMFixupY16@@3UXMVECTORF32@@B DD 03f800000r	; 1	; g_XMFixupY16
	DD	037800000r			; 1.52588e-005
	DD	000000000r			; 0
	DD	000000000r			; 0
;	COMDAT ?g_XMPermute0Z0W1Z1W@@3UXMVECTORI32@@B
.rdata	SEGMENT
?g_XMPermute0Z0W1Z1W@@3UXMVECTORI32@@B DD 08090a0bH	; g_XMPermute0Z0W1Z1W
	DD	0c0d0e0fH
	DD	018191a1bH
	DD	01c1d1e1fH
;	COMDAT ?g_XMPermute0X0Y1X1Y@@3UXMVECTORI32@@B
.rdata	SEGMENT
?g_XMPermute0X0Y1X1Y@@3UXMVECTORI32@@B DD 010203H	; g_XMPermute0X0Y1X1Y
	DD	04050607H
	DD	010111213H
	DD	014151617H
;	COMDAT ?g_XMSwizzleZXYW@@3UXMVECTORI32@@B
.rdata	SEGMENT
?g_XMSwizzleZXYW@@3UXMVECTORI32@@B DD 08090a0bH		; g_XMSwizzleZXYW
	DD	010203H
	DD	04050607H
	DD	0c0d0e0fH
;	COMDAT ?g_XMSwizzleYZXW@@3UXMVECTORI32@@B
.rdata	SEGMENT
?g_XMSwizzleYZXW@@3UXMVECTORI32@@B DD 04050607H		; g_XMSwizzleYZXW
	DD	08090a0bH
	DD	010203H
	DD	0c0d0e0fH
;	COMDAT ?g_XMSwizzleYXZW@@3UXMVECTORI32@@B
.rdata	SEGMENT
?g_XMSwizzleYXZW@@3UXMVECTORI32@@B DD 04050607H		; g_XMSwizzleYXZW
	DD	010203H
	DD	08090a0bH
	DD	0c0d0e0fH
;	COMDAT ?g_XMSwizzleXYZX@@3UXMVECTORI32@@B
.rdata	SEGMENT
?g_XMSwizzleXYZX@@3UXMVECTORI32@@B DD 010203H		; g_XMSwizzleXYZX
	DD	04050607H
	DD	08090a0bH
	DD	010203H
;	COMDAT ?g_XMSwizzleXYXY@@3UXMVECTORI32@@B
.rdata	SEGMENT
?g_XMSwizzleXYXY@@3UXMVECTORI32@@B DD 010203H		; g_XMSwizzleXYXY
	DD	04050607H
	DD	010203H
	DD	04050607H
;	COMDAT ?g_XMSelect1110@@3UXMVECTORI32@@B
.rdata	SEGMENT
?g_XMSelect1110@@3UXMVECTORI32@@B DD 0ffffffffH		; g_XMSelect1110
	DD	0ffffffffH
	DD	0ffffffffH
	DD	00H
;	COMDAT ?g_XMSelect1100@@3UXMVECTORI32@@B
.rdata	SEGMENT
?g_XMSelect1100@@3UXMVECTORI32@@B DD 0ffffffffH		; g_XMSelect1100
	DD	0ffffffffH
	DD	00H
	DD	00H
;	COMDAT ?g_XMSelect1000@@3UXMVECTORI32@@B
.rdata	SEGMENT
?g_XMSelect1000@@3UXMVECTORI32@@B DD 0ffffffffH		; g_XMSelect1000
	DD	00H
	DD	00H
	DD	00H
;	COMDAT ?g_XMOneHalfMinusEpsilon@@3UXMVECTORI32@@B
.rdata	SEGMENT
?g_XMOneHalfMinusEpsilon@@3UXMVECTORI32@@B DD 03efffffdH ; g_XMOneHalfMinusEpsilon
	DD	03efffffdH
	DD	03efffffdH
	DD	03efffffdH
;	COMDAT ?g_XMSelect1010@@3UXMVECTORI32@@B
.rdata	SEGMENT
?g_XMSelect1010@@3UXMVECTORI32@@B DD 0ffffffffH		; g_XMSelect1010
	DD	00H
	DD	0ffffffffH
	DD	00H
;	COMDAT ?g_XMSelect0101@@3UXMVECTORI32@@B
.rdata	SEGMENT
?g_XMSelect0101@@3UXMVECTORI32@@B DD 00H		; g_XMSelect0101
	DD	0ffffffffH
	DD	00H
	DD	0ffffffffH
;	COMDAT ?g_XMNegateW@@3UXMVECTORF32@@B
.rdata	SEGMENT
?g_XMNegateW@@3UXMVECTORF32@@B DD 03f800000r	; 1	; g_XMNegateW
	DD	03f800000r			; 1
	DD	03f800000r			; 1
	DD	0bf800000r			; -1
;	COMDAT ?g_XMNegateZ@@3UXMVECTORF32@@B
.rdata	SEGMENT
?g_XMNegateZ@@3UXMVECTORF32@@B DD 03f800000r	; 1	; g_XMNegateZ
	DD	03f800000r			; 1
	DD	0bf800000r			; -1
	DD	03f800000r			; 1
;	COMDAT ?g_XMNegateY@@3UXMVECTORF32@@B
.rdata	SEGMENT
?g_XMNegateY@@3UXMVECTORF32@@B DD 03f800000r	; 1	; g_XMNegateY
	DD	0bf800000r			; -1
	DD	03f800000r			; 1
	DD	03f800000r			; 1
;	COMDAT ?g_XMNegateX@@3UXMVECTORF32@@B
.rdata	SEGMENT
?g_XMNegateX@@3UXMVECTORF32@@B DD 0bf800000r	; -1	; g_XMNegateX
	DD	03f800000r			; 1
	DD	03f800000r			; 1
	DD	03f800000r			; 1
;	COMDAT ?g_XMMaskByte@@3UXMVECTORI32@@B
.rdata	SEGMENT
?g_XMMaskByte@@3UXMVECTORI32@@B DD 0ffH			; g_XMMaskByte
	DD	0ffH
	DD	0ffH
	DD	0ffH
;	COMDAT ?g_XMNoFraction@@3UXMVECTORF32@@B
.rdata	SEGMENT
?g_XMNoFraction@@3UXMVECTORF32@@B DD 04b000000r	; 8.38861e+006 ; g_XMNoFraction
	DD	04b000000r			; 8.38861e+006
	DD	04b000000r			; 8.38861e+006
	DD	04b000000r			; 8.38861e+006
;	COMDAT ?g_XMNormalizeX16Y16Z16W16@@3UXMVECTORF32@@B
.rdata	SEGMENT
?g_XMNormalizeX16Y16Z16W16@@3UXMVECTORF32@@B DD 038000100r ; 3.05185e-005 ; g_XMNormalizeX16Y16Z16W16
	DD	038000100r			; 3.05185e-005
	DD	030000100r			; 4.65675e-010
	DD	030000100r			; 4.65675e-010
;	COMDAT ?g_XMFixX16Y16Z16W16@@3UXMVECTORF32@@B
.rdata	SEGMENT
?g_XMFixX16Y16Z16W16@@3UXMVECTORF32@@B DD 0c7000000r ; -32768 ; g_XMFixX16Y16Z16W16
	DD	0c7000000r			; -32768
	DD	000000000r			; 0
	DD	000000000r			; 0
;	COMDAT ?g_XMFlipX16Y16Z16W16@@3UXMVECTORI32@@B
.rdata	SEGMENT
?g_XMFlipX16Y16Z16W16@@3UXMVECTORI32@@B DD 08000H	; g_XMFlipX16Y16Z16W16
	DD	08000H
	DD	00H
	DD	00H
;	COMDAT ?g_XMMaskX16Y16Z16W16@@3UXMVECTORI32@@B
.rdata	SEGMENT
?g_XMMaskX16Y16Z16W16@@3UXMVECTORI32@@B DD 0ffffH	; g_XMMaskX16Y16Z16W16
	DD	0ffffH
	DD	0ffff0000H
	DD	0ffff0000H
;	COMDAT ?g_XMNormalizeX16Y16@@3UXMVECTORF32@@B
.rdata	SEGMENT
?g_XMNormalizeX16Y16@@3UXMVECTORF32@@B DD 038000100r ; 3.05185e-005 ; g_XMNormalizeX16Y16
	DD	030000100r			; 4.65675e-010
	DD	000000000r			; 0
	DD	000000000r			; 0
;	COMDAT ?g_XMFixX16Y16@@3UXMVECTORF32@@B
.rdata	SEGMENT
?g_XMFixX16Y16@@3UXMVECTORF32@@B DD 0c7000000r	; -32768 ; g_XMFixX16Y16
	DD	000000000r			; 0
	DD	000000000r			; 0
	DD	000000000r			; 0
;	COMDAT ?g_XMFlipX16Y16@@3UXMVECTORI32@@B
.rdata	SEGMENT
?g_XMFlipX16Y16@@3UXMVECTORI32@@B DD 08000H		; g_XMFlipX16Y16
	DD	00H
	DD	00H
	DD	00H
;	COMDAT ?g_XMMaskX16Y16@@3UXMVECTORI32@@B
.rdata	SEGMENT
?g_XMMaskX16Y16@@3UXMVECTORI32@@B DD 0ffffH		; g_XMMaskX16Y16
	DD	0ffff0000H
	DD	00H
	DD	00H
;	COMDAT ?g_XMNormalizeA2B10G10R10@@3UXMVECTORF32@@B
.rdata	SEGMENT
?g_XMNormalizeA2B10G10R10@@3UXMVECTORF32@@B DD 03b004020r ; 0.00195695 ; g_XMNormalizeA2B10G10R10
	DD	036004020r			; 1.91108e-006
	DD	031004020r			; 1.86629e-009
	DD	02faaaaabr			; 3.10441e-010
;	COMDAT ?g_XMFixAA2B10G10R10@@3UXMVECTORF32@@B
.rdata	SEGMENT
?g_XMFixAA2B10G10R10@@3UXMVECTORF32@@B DD 0c4000000r ; -512 ; g_XMFixAA2B10G10R10
	DD	0c9000000r			; -524288
	DD	0ce000000r			; -5.36871e+008
	DD	04f000000r			; 2.14748e+009
;	COMDAT ?g_XMFlipA2B10G10R10@@3UXMVECTORI32@@B
.rdata	SEGMENT
?g_XMFlipA2B10G10R10@@3UXMVECTORI32@@B DD 0200H		; g_XMFlipA2B10G10R10
	DD	080000H
	DD	020000000H
	DD	080000000H
;	COMDAT ?g_XMMaskA2B10G10R10@@3UXMVECTORI32@@B
.rdata	SEGMENT
?g_XMMaskA2B10G10R10@@3UXMVECTORI32@@B DD 03ffH		; g_XMMaskA2B10G10R10
	DD	0ffc00H
	DD	03ff00000H
	DD	0c0000000H
;	COMDAT ?g_XMNormalizeA8R8G8B8@@3UXMVECTORF32@@B
.rdata	SEGMENT
?g_XMNormalizeA8R8G8B8@@3UXMVECTORF32@@B DD 033808081r ; 5.98384e-008 ; g_XMNormalizeA8R8G8B8
	DD	037808081r			; 1.53186e-005
	DD	03b808081r			; 0.00392157
	DD	02f808081r			; 2.33744e-010
;	COMDAT ?g_XMFixAA8R8G8B8@@3UXMVECTORF32@@B
.rdata	SEGMENT
?g_XMFixAA8R8G8B8@@3UXMVECTORF32@@B DD 000000000r ; 0	; g_XMFixAA8R8G8B8
	DD	000000000r			; 0
	DD	000000000r			; 0
	DD	04f000000r			; 2.14748e+009
;	COMDAT ?g_XMFlipA8R8G8B8@@3UXMVECTORI32@@B
.rdata	SEGMENT
?g_XMFlipA8R8G8B8@@3UXMVECTORI32@@B DD 00H		; g_XMFlipA8R8G8B8
	DD	00H
	DD	00H
	DD	080000000H
;	COMDAT ?g_XMMaskA8R8G8B8@@3UXMVECTORI32@@B
.rdata	SEGMENT
?g_XMMaskA8R8G8B8@@3UXMVECTORI32@@B DD 0ff0000H		; g_XMMaskA8R8G8B8
	DD	0ff00H
	DD	0ffH
	DD	0ff000000H
;	COMDAT ?g_XMNegOneMask@@3UXMVECTORI32@@B
.rdata	SEGMENT
?g_XMNegOneMask@@3UXMVECTORI32@@B DD 0ffffffffH		; g_XMNegOneMask
	DD	0ffffffffH
	DD	0ffffffffH
	DD	0ffffffffH
;	COMDAT ?g_XMFltMax@@3UXMVECTORI32@@B
.rdata	SEGMENT
?g_XMFltMax@@3UXMVECTORI32@@B DD 07f7fffffH		; g_XMFltMax
	DD	07f7fffffH
	DD	07f7fffffH
	DD	07f7fffffH
;	COMDAT ?g_XMFltMin@@3UXMVECTORI32@@B
.rdata	SEGMENT
?g_XMFltMin@@3UXMVECTORI32@@B DD 0800000H		; g_XMFltMin
	DD	0800000H
	DD	0800000H
	DD	0800000H
;	COMDAT ?g_XMAbsMask@@3UXMVECTORI32@@B
.rdata	SEGMENT
?g_XMAbsMask@@3UXMVECTORI32@@B DD 07fffffffH		; g_XMAbsMask
	DD	07fffffffH
	DD	07fffffffH
	DD	07fffffffH
;	COMDAT ?g_XMQNaNTest@@3UXMVECTORI32@@B
.rdata	SEGMENT
?g_XMQNaNTest@@3UXMVECTORI32@@B DD 07fffffH		; g_XMQNaNTest
	DD	07fffffH
	DD	07fffffH
	DD	07fffffH
;	COMDAT ?g_XMQNaN@@3UXMVECTORI32@@B
.rdata	SEGMENT
?g_XMQNaN@@3UXMVECTORI32@@B DD 07fc00000H		; g_XMQNaN
	DD	07fc00000H
	DD	07fc00000H
	DD	07fc00000H
;	COMDAT ?g_XMInfinity@@3UXMVECTORI32@@B
.rdata	SEGMENT
?g_XMInfinity@@3UXMVECTORI32@@B DD 07f800000H		; g_XMInfinity
	DD	07f800000H
	DD	07f800000H
	DD	07f800000H
;	COMDAT ?g_XMEpsilon@@3UXMVECTORF32@@B
.rdata	SEGMENT
?g_XMEpsilon@@3UXMVECTORF32@@B DD 034000000r	; 1.19209e-007 ; g_XMEpsilon
	DD	034000000r			; 1.19209e-007
	DD	034000000r			; 1.19209e-007
	DD	034000000r			; 1.19209e-007
;	COMDAT ?g_XMReciprocalTwoPi@@3UXMVECTORF32@@B
.rdata	SEGMENT
?g_XMReciprocalTwoPi@@3UXMVECTORF32@@B DD 03e22f983r ; 0.159155 ; g_XMReciprocalTwoPi
	DD	03e22f983r			; 0.159155
	DD	03e22f983r			; 0.159155
	DD	03e22f983r			; 0.159155
;	COMDAT ?g_XMTwoPi@@3UXMVECTORF32@@B
.rdata	SEGMENT
?g_XMTwoPi@@3UXMVECTORF32@@B DD 040c90fdbr	; 6.28319 ; g_XMTwoPi
	DD	040c90fdbr			; 6.28319
	DD	040c90fdbr			; 6.28319
	DD	040c90fdbr			; 6.28319
;	COMDAT ?g_XMReciprocalPi@@3UXMVECTORF32@@B
.rdata	SEGMENT
?g_XMReciprocalPi@@3UXMVECTORF32@@B DD 03ea2f983r ; 0.31831 ; g_XMReciprocalPi
	DD	03ea2f983r			; 0.31831
	DD	03ea2f983r			; 0.31831
	DD	03ea2f983r			; 0.31831
;	COMDAT ?g_XMPi@@3UXMVECTORF32@@B
.rdata	SEGMENT
?g_XMPi@@3UXMVECTORF32@@B DD 040490fdbr		; 3.14159 ; g_XMPi
	DD	040490fdbr			; 3.14159
	DD	040490fdbr			; 3.14159
	DD	040490fdbr			; 3.14159
;	COMDAT ?g_XMHalfPi@@3UXMVECTORF32@@B
.rdata	SEGMENT
?g_XMHalfPi@@3UXMVECTORF32@@B DD 03fc90fdbr	; 1.5708 ; g_XMHalfPi
	DD	03fc90fdbr			; 1.5708
	DD	03fc90fdbr			; 1.5708
	DD	03fc90fdbr			; 1.5708
;	COMDAT ?g_XMNegativePi@@3UXMVECTORF32@@B
.rdata	SEGMENT
?g_XMNegativePi@@3UXMVECTORF32@@B DD 0c0490fdbr	; -3.14159 ; g_XMNegativePi
	DD	0c0490fdbr			; -3.14159
	DD	0c0490fdbr			; -3.14159
	DD	0c0490fdbr			; -3.14159
;	COMDAT ?g_XMNegativeTwoPi@@3UXMVECTORF32@@B
.rdata	SEGMENT
?g_XMNegativeTwoPi@@3UXMVECTORF32@@B DD 0c0c90fdbr ; -6.28319 ; g_XMNegativeTwoPi
	DD	0c0c90fdbr			; -6.28319
	DD	0c0c90fdbr			; -6.28319
	DD	0c0c90fdbr			; -6.28319
;	COMDAT ?g_XMNegativeOneHalf@@3UXMVECTORF32@@B
.rdata	SEGMENT
?g_XMNegativeOneHalf@@3UXMVECTORF32@@B DD 0bf000000r ; -0.5 ; g_XMNegativeOneHalf
	DD	0bf000000r			; -0.5
	DD	0bf000000r			; -0.5
	DD	0bf000000r			; -0.5
;	COMDAT ?g_XMOneHalf@@3UXMVECTORF32@@B
.rdata	SEGMENT
?g_XMOneHalf@@3UXMVECTORF32@@B DD 03f000000r	; 0.5	; g_XMOneHalf
	DD	03f000000r			; 0.5
	DD	03f000000r			; 0.5
	DD	03f000000r			; 0.5
;	COMDAT ?g_XMNegativeOne@@3UXMVECTORF32@@B
.rdata	SEGMENT
?g_XMNegativeOne@@3UXMVECTORF32@@B DD 0bf800000r ; -1	; g_XMNegativeOne
	DD	0bf800000r			; -1
	DD	0bf800000r			; -1
	DD	0bf800000r			; -1
;	COMDAT ?g_XMZero@@3UXMVECTORF32@@B
.rdata	SEGMENT
?g_XMZero@@3UXMVECTORF32@@B DD 000000000r	; 0	; g_XMZero
	DD	000000000r			; 0
	DD	000000000r			; 0
	DD	000000000r			; 0
;	COMDAT ?g_XMOne3@@3UXMVECTORF32@@B
.rdata	SEGMENT
?g_XMOne3@@3UXMVECTORF32@@B DD 03f800000r	; 1	; g_XMOne3
	DD	03f800000r			; 1
	DD	03f800000r			; 1
	DD	000000000r			; 0
;	COMDAT ?g_XMOne@@3UXMVECTORF32@@B
.rdata	SEGMENT
?g_XMOne@@3UXMVECTORF32@@B DD 03f800000r	; 1	; g_XMOne
	DD	03f800000r			; 1
	DD	03f800000r			; 1
	DD	03f800000r			; 1
;	COMDAT ?g_XMMaskW@@3UXMVECTORI32@@B
.rdata	SEGMENT
?g_XMMaskW@@3UXMVECTORI32@@B DD 00H			; g_XMMaskW
	DD	00H
	DD	00H
	DD	0ffffffffH
;	COMDAT ?g_XMMaskZ@@3UXMVECTORI32@@B
.rdata	SEGMENT
?g_XMMaskZ@@3UXMVECTORI32@@B DD 00H			; g_XMMaskZ
	DD	00H
	DD	0ffffffffH
	DD	00H
;	COMDAT ?g_XMMaskY@@3UXMVECTORI32@@B
.rdata	SEGMENT
?g_XMMaskY@@3UXMVECTORI32@@B DD 00H			; g_XMMaskY
	DD	0ffffffffH
	DD	00H
	DD	00H
;	COMDAT ?g_XMMaskX@@3UXMVECTORI32@@B
.rdata	SEGMENT
?g_XMMaskX@@3UXMVECTORI32@@B DD 0ffffffffH		; g_XMMaskX
	DD	00H
	DD	00H
	DD	00H
;	COMDAT ?g_XMMask3@@3UXMVECTORI32@@B
.rdata	SEGMENT
?g_XMMask3@@3UXMVECTORI32@@B DD 0ffffffffH		; g_XMMask3
	DD	0ffffffffH
	DD	0ffffffffH
	DD	00H
;	COMDAT ?g_XMNegate3@@3UXMVECTORI32@@B
.rdata	SEGMENT
?g_XMNegate3@@3UXMVECTORI32@@B DD 080000000H		; g_XMNegate3
	DD	080000000H
	DD	080000000H
	DD	00H
;	COMDAT ?g_XMNegativeZero@@3UXMVECTORI32@@B
.rdata	SEGMENT
?g_XMNegativeZero@@3UXMVECTORI32@@B DD 080000000H	; g_XMNegativeZero
	DD	080000000H
	DD	080000000H
	DD	080000000H
;	COMDAT ?g_XMNegIdentityR3@@3UXMVECTORF32@@B
.rdata	SEGMENT
?g_XMNegIdentityR3@@3UXMVECTORF32@@B DD 000000000r ; 0	; g_XMNegIdentityR3
	DD	000000000r			; 0
	DD	000000000r			; 0
	DD	0bf800000r			; -1
;	COMDAT ?g_XMNegIdentityR2@@3UXMVECTORF32@@B
.rdata	SEGMENT
?g_XMNegIdentityR2@@3UXMVECTORF32@@B DD 000000000r ; 0	; g_XMNegIdentityR2
	DD	000000000r			; 0
	DD	0bf800000r			; -1
	DD	000000000r			; 0
;	COMDAT ?g_XMNegIdentityR1@@3UXMVECTORF32@@B
.rdata	SEGMENT
?g_XMNegIdentityR1@@3UXMVECTORF32@@B DD 000000000r ; 0	; g_XMNegIdentityR1
	DD	0bf800000r			; -1
	DD	000000000r			; 0
	DD	000000000r			; 0
;	COMDAT ?g_XMNegIdentityR0@@3UXMVECTORF32@@B
.rdata	SEGMENT
?g_XMNegIdentityR0@@3UXMVECTORF32@@B DD 0bf800000r ; -1	; g_XMNegIdentityR0
	DD	000000000r			; 0
	DD	000000000r			; 0
	DD	000000000r			; 0
;	COMDAT ?g_XMIdentityR3@@3UXMVECTORF32@@B
.rdata	SEGMENT
?g_XMIdentityR3@@3UXMVECTORF32@@B DD 000000000r	; 0	; g_XMIdentityR3
	DD	000000000r			; 0
	DD	000000000r			; 0
	DD	03f800000r			; 1
;	COMDAT ?g_XMIdentityR2@@3UXMVECTORF32@@B
.rdata	SEGMENT
?g_XMIdentityR2@@3UXMVECTORF32@@B DD 000000000r	; 0	; g_XMIdentityR2
	DD	000000000r			; 0
	DD	03f800000r			; 1
	DD	000000000r			; 0
;	COMDAT ?g_XMIdentityR1@@3UXMVECTORF32@@B
.rdata	SEGMENT
?g_XMIdentityR1@@3UXMVECTORF32@@B DD 000000000r	; 0	; g_XMIdentityR1
	DD	03f800000r			; 1
	DD	000000000r			; 0
	DD	000000000r			; 0
;	COMDAT ?g_XMIdentityR0@@3UXMVECTORF32@@B
.rdata	SEGMENT
?g_XMIdentityR0@@3UXMVECTORF32@@B DD 03f800000r	; 1	; g_XMIdentityR0
	DD	000000000r			; 0
	DD	000000000r			; 0
	DD	000000000r			; 0
;	COMDAT ?g_XMPiConstants0@@3UXMVECTORF32@@B
.rdata	SEGMENT
?g_XMPiConstants0@@3UXMVECTORF32@@B DD 040490fdbr ; 3.14159 ; g_XMPiConstants0
	DD	040c90fdbr			; 6.28319
	DD	03ea2f983r			; 0.31831
	DD	03e22f983r			; 0.159155
;	COMDAT ?g_XMASinEstConstants@@3UXMVECTORF32@@B
.rdata	SEGMENT
?g_XMASinEstConstants@@3UXMVECTORF32@@B DD 03f800001r ; 1 ; g_XMASinEstConstants
	DD	03fc90fdbr			; 1.5708
	DD	000000000r			; 0
	DD	000000000r			; 0
;	COMDAT ?g_XMASinEstCoefficients@@3UXMVECTORF32@@B
.rdata	SEGMENT
?g_XMASinEstCoefficients@@3UXMVECTORF32@@B DD 0bfae4ee5r ; -1.36178 ; g_XMASinEstCoefficients
	DD	0401849a5r			; 2.37949
	DD	0bf4ee811r			; -0.808229
	DD	03e8e8fb5r			; 0.27844
;	COMDAT ?g_XMATanEstCoefficients@@3UXMVECTORF32@@B
.rdata	SEGMENT
?g_XMATanEstCoefficients@@3UXMVECTORF32@@B DD 03f44dc79r ; 0.768989 ; g_XMATanEstCoefficients
	DD	03f8d6834r			; 1.10474
	DD	03f5dbe43r			; 0.866184
	DD	03fc90fdbr			; 1.5708
;	COMDAT ?g_XMTanEstCoefficients@@3UXMVECTORF32@@B
.rdata	SEGMENT
?g_XMTanEstCoefficients@@3UXMVECTORF32@@B DD 0401ef9dbr ; 2.484 ; g_XMTanEstCoefficients
	DD	0be482f23r			; -0.195492
	DD	0401de9e6r			; 2.4674
	DD	03ea2f983r			; 0.31831
;	COMDAT ?g_XMCosEstCoefficients@@3UXMVECTORF32@@B
.rdata	SEGMENT
?g_XMCosEstCoefficients@@3UXMVECTORF32@@B DD 03f800000r ; 1 ; g_XMCosEstCoefficients
	DD	0befd9e41r			; -0.495348
	DD	03d1eda81r			; 0.0387826
	DD	0ba72600cr			; -0.000924588
;	COMDAT ?g_XMSinEstCoefficients@@3UXMVECTORF32@@B
.rdata	SEGMENT
?g_XMSinEstCoefficients@@3UXMVECTORF32@@B DD 03f800000r ; 1 ; g_XMSinEstCoefficients
	DD	0be2a84b5r			; -0.166522
	DD	03c0658eer			; 0.00819991
	DD	0b92951der			; -0.000161476
;	COMDAT ?g_XMATanCoefficients2@@3UXMVECTORF32@@B
.rdata	SEGMENT
?g_XMATanCoefficients2@@3UXMVECTORF32@@B DD 03d70f0f1r ; 0.0588235 ; g_XMATanCoefficients2
	DD	03d579436r			; 0.0526316
	DD	03d430c31r			; 0.047619
	DD	03d321643r			; 0.0434783
;	COMDAT ?g_XMATanCoefficients1@@3UXMVECTORF32@@B
.rdata	SEGMENT
?g_XMATanCoefficients1@@3UXMVECTORF32@@B DD 03de38e39r ; 0.111111 ; g_XMATanCoefficients1
	DD	03dba2e8cr			; 0.0909091
	DD	03d9d89d9r			; 0.0769231
	DD	03d888889r			; 0.0666667
;	COMDAT ?g_XMATanCoefficients0@@3UXMVECTORF32@@B
.rdata	SEGMENT
?g_XMATanCoefficients0@@3UXMVECTORF32@@B DD 03f800000r ; 1 ; g_XMATanCoefficients0
	DD	03eaaaaabr			; 0.333333
	DD	03e4ccccdr			; 0.2
	DD	03e124925r			; 0.142857
;	COMDAT ?g_XMASinCoefficients2@@3UXMVECTORF32@@B
.rdata	SEGMENT
?g_XMASinCoefficients2@@3UXMVECTORF32@@B DD 0bfaf4418r ; -1.36927 ; g_XMASinCoefficients2
	DD	0c08f6ad9r			; -4.48179
	DD	03fb58485r			; 1.41811
	DD	040af6ad8r			; 5.48179
;	COMDAT ?g_XMASinCoefficients1@@3UXMVECTORF32@@B
.rdata	SEGMENT
?g_XMASinCoefficients1@@3UXMVECTORF32@@B DD 03f1dd7b6r ; 0.616573 ; g_XMASinCoefficients1
	DD	0408980bdr			; 4.29697
	DD	0bf983f2fr			; -1.18943
	DD	0c0d1360er			; -6.53785
;	COMDAT ?g_XMASinCoefficients0@@3UXMVECTORF32@@B
.rdata	SEGMENT
?g_XMASinCoefficients0@@3UXMVECTORF32@@B DD 0bd6dd42dr ; -0.0580637 ; g_XMASinCoefficients0
	DD	0bed65553r			; -0.41862
	DD	03e663246r			; 0.224801
	DD	0400b1889r			; 2.17337
;	COMDAT ?g_XMTanCoefficients2@@3UXMVECTORF32@@B
.rdata	SEGMENT
?g_XMTanCoefficients2@@3UXMVECTORF32@@B DD 03a1aac12r ; 0.000590027 ; g_XMTanCoefficients2
	DD	0397abeb9r			; 0.000239129
	DD	038cb3f0cr			; 9.69154e-005
	DD	03824bec9r			; 3.92783e-005
;	COMDAT ?g_XMTanCoefficients1@@3UXMVECTORF32@@B
.rdata	SEGMENT
?g_XMTanCoefficients1@@3UXMVECTORF32@@B DD 03cb327a4r ; 0.0218695 ; g_XMTanCoefficients1
	DD	03c11371br			; 0.00886324
	DD	03b6b69e9r			; 0.00359213
	DD	03abed1b3r			; 0.00145583
;	COMDAT ?g_XMTanCoefficients0@@3UXMVECTORF32@@B
.rdata	SEGMENT
?g_XMTanCoefficients0@@3UXMVECTORF32@@B DD 03f800000r ; 1 ; g_XMTanCoefficients0
	DD	03eaaaaabr			; 0.333333
	DD	03e088889r			; 0.133333
	DD	03d5d0dd1r			; 0.0539683
;	COMDAT ?g_XMCosCoefficients2@@3UXMVECTORF32@@B
.rdata	SEGMENT
?g_XMCosCoefficients2@@3UXMVECTORF32@@B DD 029573f9fr ; 4.77948e-014 ; g_XMCosCoefficients2
	DD	0a53413c3r			; -1.56192e-016
	DD	020f2a15dr			; 4.11032e-019
	DD	09c8671cbr			; -8.89679e-022
;	COMDAT ?g_XMCosCoefficients1@@3UXMVECTORF32@@B
.rdata	SEGMENT
?g_XMCosCoefficients1@@3UXMVECTORF32@@B DD 037d00d01r ; 2.48016e-005 ; g_XMCosCoefficients1
	DD	0b493f27er			; -2.75573e-007
	DD	0310f76c8r			; 2.08768e-009
	DD	0ad49cba5r			; -1.14707e-011
;	COMDAT ?g_XMCosCoefficients0@@3UXMVECTORF32@@B
.rdata	SEGMENT
?g_XMCosCoefficients0@@3UXMVECTORF32@@B DD 03f800000r ; 1 ; g_XMCosCoefficients0
	DD	0bf000000r			; -0.5
	DD	03d2aaaabr			; 0.0416667
	DD	0bab60b61r			; -0.00138889
;	COMDAT ?g_XMSinCoefficients2@@3UXMVECTORF32@@B
.rdata	SEGMENT
?g_XMSinCoefficients2@@3UXMVECTORF32@@B DD 0274a963cr ; 2.81146e-015 ; g_XMSinCoefficients2
	DD	0a317a4dar			; -8.22064e-018
	DD	01eb8dc78r			; 1.95729e-020
	DD	09a3b0da1r			; -3.86817e-023
;	COMDAT ?g_XMSinCoefficients1@@3UXMVECTORF32@@B
.rdata	SEGMENT
?g_XMSinCoefficients1@@3UXMVECTORF32@@B DD 03638ef1dr ; 2.75573e-006 ; g_XMSinCoefficients1
	DD	0b2d7322br			; -2.50521e-008
	DD	02f309231r			; 1.6059e-010
	DD	0ab573f9fr			; -7.64716e-013
;	COMDAT ?g_XMSinCoefficients0@@3UXMVECTORF32@@B
.rdata	SEGMENT
?g_XMSinCoefficients0@@3UXMVECTORF32@@B DD 03f800000r ; 1 ; g_XMSinCoefficients0
	DD	0be2aaaabr			; -0.166667
	DD	03c088889r			; 0.00833333
	DD	0b9500d01r			; -0.000198413
;	COMDAT D3DTESSPRIMITIVEVERTEXCOUNT
.rdata	SEGMENT
D3DTESSPRIMITIVEVERTEXCOUNT DD 00H
	DD	00H
	DD	00H
	DD	00H
	DD	02H
	DD	00H
	DD	01H
	DD	01H
	DD	03H
	DD	00H
	DD	01H
	DD	02H
	DD	01H
	DD	02H
	DD	00H
	DD	00H
	DD	00H
	DD	00H
	DD	00H
	DD	00H
	DD	00H
	DD	00H
	DD	00H
	DD	00H
	DD	00H
	DD	00H
	DD	04H
	DD	00H
	DD	00H
	DD	00H
	DD	00H
	DD	00H
	DD	01H
	DD	00H
	DD	01H
	DD	00H
	DD	01H
	DD	00H
;	COMDAT D3DPRIMITIVEVERTEXCOUNT
.rdata	SEGMENT
D3DPRIMITIVEVERTEXCOUNT DD 00H
	DD	00H
	DD	01H
	DD	00H
	DD	02H
	DD	00H
	DD	01H
	DD	01H
	DD	03H
	DD	00H
	DD	01H
	DD	02H
	DD	01H
	DD	02H
	DD	00H
	DD	00H
	DD	03H
	DD	00H
	DD	00H
	DD	00H
	DD	00H
	DD	00H
	DD	00H
	DD	00H
	DD	00H
	DD	00H
	DD	04H
	DD	00H
;	COMDAT __C1_11886
.XBLD$W	SEGMENT
__C1_11886 DW	04331H
	DW	00H
	DW	00H
	DW	00H
	DW	010H
	DW	00H
	DW	02e6eH
	DW	04400H
;	COMDAT __C2_11886
.XBLD$W	SEGMENT
__C2_11886 DB	'C2', 00H, 00H, 00H, 00H, 00H, 00H, 00H, 010H, 00H, 00H, '.'
	DB	'nD', 00H
PUBLIC	sqrtf
EXTRN	_fltused:PROC
; Function compile flags: /Ogsu

	.code

sqrtf PROC NEAR						; COMDAT

; Begin code for function: sqrtf
; File d:\program files (x86)\microsoft xbox 360 sdk\include\xbox\math.h
; Line 330
	fsqrts       fr1,fr1
	blr
; End code for function: sqrtf
sqrtf	ENDP

PUBLIC	?sqrt@@YAMM@Z					; sqrt
; Function compile flags: /Ogsu

	.code

?sqrt@@YAMM@Z PROC NEAR					; sqrt, COMDAT

; Begin code for function: ?sqrt@@YAMM@Z
; Line 434
	fsqrts       fr1,fr1
	blr
; End code for function: ?sqrt@@YAMM@Z
?sqrt@@YAMM@Z ENDP
							; sqrt
PUBLIC	??_7exception@stdext@@6B@			; stdext::exception::`vftable'
PUBLIC	??0exception@stdext@@QAA@PBDH@Z			; stdext::exception::exception
PUBLIC	?what@exception@stdext@@UBAPBDXZ		; stdext::exception::what
PUBLIC	?_Doraise@exception@stdext@@MBAXXZ		; stdext::exception::_Doraise
EXTRN	??_Eexception@stdext@@UAAPAXI@Z:PROC		; stdext::exception::`vector deleting destructor'
;	COMDAT ??_7exception@stdext@@6B@
; File d:\program files (x86)\microsoft xbox 360 sdk\include\xbox\exception
.rdata	SEGMENT
??_7exception@stdext@@6B@ DD ??_Eexception@stdext@@UAAPAXI@Z ; stdext::exception::`vftable'
	DD	?what@exception@stdext@@UBAPBDXZ
	DD	?_Doraise@exception@stdext@@MBAXXZ
; Function compile flags: /Ogsu

	.code

??0exception@stdext@@QAA@PBDH@Z	PROC NEAR		; stdext::exception::exception, COMDAT

; Begin code for function: ??0exception@stdext@@QAA@PBDH@Z
; Line 228
	lis          r11,??_7exception@stdext@@6B@
	stw          r4,4(r3)
	addi         r11,r11,??_7exception@stdext@@6B@
	stw          r11,0(r3)
; Line 230
	blr
; End code for function: ??0exception@stdext@@QAA@PBDH@Z
??0exception@stdext@@QAA@PBDH@Z ENDP
							; stdext::exception::exception
PUBLIC	??1exception@stdext@@UAA@XZ			; stdext::exception::~exception
; Function compile flags: /Ogsu

	.code

??1exception@stdext@@UAA@XZ PROC NEAR			; stdext::exception::~exception, COMDAT

; Begin code for function: ??1exception@stdext@@UAA@XZ
; Line 244
	lis          r11,??_7exception@stdext@@6B@
	addi         r11,r11,??_7exception@stdext@@6B@
	stw          r11,0(r3)
; Line 245
	blr
; End code for function: ??1exception@stdext@@UAA@XZ
??1exception@stdext@@UAA@XZ ENDP
							; stdext::exception::~exception
PUBLIC	??_C@_0BC@BDKFLDHL@unknown?5exception?$AA@	; `string'
;	COMDAT ??_C@_0BC@BDKFLDHL@unknown?5exception?$AA@
.rdata	SEGMENT
??_C@_0BC@BDKFLDHL@unknown?5exception?$AA@ DB 'unknown exception', 00H ; `string'
; Function compile flags: /Ogsu

	.code

?what@exception@stdext@@UBAPBDXZ PROC NEAR		; stdext::exception::what, COMDAT

; Begin code for function: ?what@exception@stdext@@UBAPBDXZ
; Line 249
	lwz          r3,4(r3)
	cmplwi       cr6,r3,0
	bnelr        cr6
	lis          r11,??_C@_0BC@BDKFLDHL@unknown?5exception?$AA@
	addi         r3,r11,??_C@_0BC@BDKFLDHL@unknown?5exception?$AA@
$LN4@what:
; Line 250
	blr
; End code for function: ?what@exception@stdext@@UBAPBDXZ
?what@exception@stdext@@UBAPBDXZ ENDP
							; stdext::exception::what
PUBLIC	?_Raise@exception@stdext@@QBAXXZ		; stdext::exception::_Raise
EXTRN	_invoke_watson:PROC
EXTRN	?_Raise_handler@std@@3P6AXABVexception@stdext@@@ZA:DWORD ; std::_Raise_handler
;	COMDAT .pdata
.pdata	SEGMENT
$T89759	DD	?_Raise@exception@stdext@@QBAXXZ
	DD	040001704H
; Function compile flags: /Ogsu

	.code

?_Raise@exception@stdext@@QBAXXZ PROC NEAR		; stdext::exception::_Raise, COMDAT

; Begin code for function: ?_Raise@exception@stdext@@QBAXXZ
; Line 253
	mflr         r12
	stw          r12,-8(r1)
	std          r31,-10h(r1)
	stwu         r1,-60h(r1)
.endprolog
$M89757:
; Line 254
	lis          r11,?_Raise_handler@std@@3P6AXABVexception@stdext@@@ZA
	mr           r31,r3
	lwz          r10,?_Raise_handler@std@@3P6AXABVexception@stdext@@@ZA(r11)
	cmplwi       cr6,r10,0
	beq          cr6,$LN1@Raise
; Line 255
	rlwinm       r11,r10,0,0,31
	mtctr        r11
	bctrl
$LN1@Raise:
; Line 257
	lwz          r11,0(r31)
	mr           r3,r31
	lwz          r11,8(r11)
	mtctr        r11
	bctrl
; Line 258
	li           r7,0
	li           r6,0
	li           r5,0
	li           r4,0
	li           r3,0
	bl           _invoke_watson
$LN7@Raise:
$LN4@Raise:
$M89758:
; End code for function: ?_Raise@exception@stdext@@QBAXXZ
?_Raise@exception@stdext@@QBAXXZ ENDP
							; stdext::exception::_Raise
; Function compile flags: /Ogsu

	.code

?_Doraise@exception@stdext@@MBAXXZ PROC NEAR		; stdext::exception::_Doraise, COMDAT

; Begin code for function: ?_Doraise@exception@stdext@@MBAXXZ
; Line 264
	blr
; End code for function: ?_Doraise@exception@stdext@@MBAXXZ
?_Doraise@exception@stdext@@MBAXXZ ENDP
							; stdext::exception::_Doraise
EXTRN	??3@YAXPAX@Z:PROC				; operator delete
;	COMDAT .pdata
.pdata	SEGMENT
$T89771	DD	??_Gexception@stdext@@UAAPAXI@Z
	DD	040001104H
; Function compile flags: /Ogsu

	.code

??_Gexception@stdext@@UAAPAXI@Z	PROC NEAR		; stdext::exception::`scalar deleting destructor', COMDAT

; Begin code for function: ??_Gexception@stdext@@UAAPAXI@Z
	mflr         r12
	stw          r12,-8(r1)
	std          r31,-10h(r1)
	stwu         r1,-60h(r1)
.endprolog
$M89769:
	lis          r11,??_7exception@stdext@@6B@
	mr           r31,r3
	addi         r11,r11,??_7exception@stdext@@6B@
	clrlwi.      r10,r4,31
	stw          r11,0(r3)
	beq          $LN1@scalar
	bl           ??3@YAXPAX@Z
$LN1@scalar:
	mr           r3,r31
	addi         r1,r1,96		; 60h
	lwz          r12,-8(r1)
	mtlr         r12
	ld           r31,-10h(r1)
	blr
$M89770:
; End code for function: ??_Gexception@stdext@@UAAPAXI@Z
??_Gexception@stdext@@UAAPAXI@Z ENDP
							; stdext::exception::`scalar deleting destructor'
PUBLIC	??_7bad_alloc@stdext@@6B@			; stdext::bad_alloc::`vftable'
PUBLIC	??0bad_alloc@stdext@@QAA@PBD@Z			; stdext::bad_alloc::bad_alloc
PUBLIC	?_Doraise@bad_alloc@stdext@@MBAXXZ		; stdext::bad_alloc::_Doraise
EXTRN	??_Ebad_alloc@stdext@@UAAPAXI@Z:PROC		; stdext::bad_alloc::`vector deleting destructor'
;	COMDAT ??_7bad_alloc@stdext@@6B@
.rdata	SEGMENT
??_7bad_alloc@stdext@@6B@ DD ??_Ebad_alloc@stdext@@UAAPAXI@Z ; stdext::bad_alloc::`vftable'
	DD	?what@exception@stdext@@UBAPBDXZ
	DD	?_Doraise@bad_alloc@stdext@@MBAXXZ
; Function compile flags: /Ogsu

	.code

??0bad_alloc@stdext@@QAA@PBD@Z PROC NEAR			; stdext::bad_alloc::bad_alloc, COMDAT

; Begin code for function: ??0bad_alloc@stdext@@QAA@PBD@Z
; Line 340
	lis          r11,??_7bad_alloc@stdext@@6B@
	stw          r4,4(r3)
	addi         r11,r11,??_7bad_alloc@stdext@@6B@
	stw          r11,0(r3)
; Line 341
	blr
; End code for function: ??0bad_alloc@stdext@@QAA@PBD@Z
??0bad_alloc@stdext@@QAA@PBD@Z ENDP
							; stdext::bad_alloc::bad_alloc
PUBLIC	??1bad_alloc@stdext@@UAA@XZ			; stdext::bad_alloc::~bad_alloc
; Function compile flags: /Ogsu

	.code

??1bad_alloc@stdext@@UAA@XZ PROC NEAR			; stdext::bad_alloc::~bad_alloc, COMDAT

; Begin code for function: ??1bad_alloc@stdext@@UAA@XZ
; Line 350
	lis          r11,??_7exception@stdext@@6B@
	addi         r11,r11,??_7exception@stdext@@6B@
	stw          r11,0(r3)
	blr
; End code for function: ??1bad_alloc@stdext@@UAA@XZ
??1bad_alloc@stdext@@UAA@XZ ENDP
							; stdext::bad_alloc::~bad_alloc
; Function compile flags: /Ogsu

	.code

?_Doraise@bad_alloc@stdext@@MBAXXZ PROC NEAR		; stdext::bad_alloc::_Doraise, COMDAT

; Begin code for function: ?_Doraise@bad_alloc@stdext@@MBAXXZ
; Line 356
	li           r7,0
	li           r6,0
	li           r5,0
	li           r4,0
	li           r3,0
	b            _invoke_watson
; End code for function: ?_Doraise@bad_alloc@stdext@@MBAXXZ
?_Doraise@bad_alloc@stdext@@MBAXXZ ENDP
							; stdext::bad_alloc::_Doraise
;	COMDAT .pdata
.pdata	SEGMENT
$T89797	DD	??_Gbad_alloc@stdext@@UAAPAXI@Z
	DD	040001104H
; Function compile flags: /Ogsu

	.code

??_Gbad_alloc@stdext@@UAAPAXI@Z	PROC NEAR		; stdext::bad_alloc::`scalar deleting destructor', COMDAT

; Begin code for function: ??_Gbad_alloc@stdext@@UAAPAXI@Z
	mflr         r12
	stw          r12,-8(r1)
	std          r31,-10h(r1)
	stwu         r1,-60h(r1)
.endprolog
$M89795:
	lis          r11,??_7exception@stdext@@6B@
	mr           r31,r3
	addi         r11,r11,??_7exception@stdext@@6B@
	clrlwi.      r10,r4,31
	stw          r11,0(r3)
	beq          $LN1@scalar@2
	bl           ??3@YAXPAX@Z
$LN1@scalar@2:
	mr           r3,r31
	addi         r1,r1,96		; 60h
	lwz          r12,-8(r1)
	mtlr         r12
	ld           r31,-10h(r1)
	blr
$M89796:
; End code for function: ??_Gbad_alloc@stdext@@UAAPAXI@Z
??_Gbad_alloc@stdext@@UAAPAXI@Z ENDP
							; stdext::bad_alloc::`scalar deleting destructor'
PUBLIC	??2@YAPAXIPAX@Z					; operator new
; Function compile flags: /Ogsu

	.code

??2@YAPAXIPAX@Z	PROC NEAR				; operator new, COMDAT

; Begin code for function: ??2@YAPAXIPAX@Z
; File d:\program files (x86)\microsoft xbox 360 sdk\include\xbox\new
; Line 49
	mr           r3,r4
; Line 50
	blr
; End code for function: ??2@YAPAXIPAX@Z
??2@YAPAXIPAX@Z ENDP
							; operator new
PUBLIC	?_Orphan_all@_Container_base0@std@@QAAXXZ	; std::_Container_base0::_Orphan_all
; Function compile flags: /Ogsu

	.code

?_Orphan_all@_Container_base0@std@@QAAXXZ PROC NEAR	; std::_Container_base0::_Orphan_all, COMDAT

; Begin code for function: ?_Orphan_all@_Container_base0@std@@QAAXXZ
; File d:\program files (x86)\microsoft xbox 360 sdk\include\xbox\xutility
; Line 38
	blr
; End code for function: ?_Orphan_all@_Container_base0@std@@QAAXXZ
?_Orphan_all@_Container_base0@std@@QAAXXZ ENDP
							; std::_Container_base0::_Orphan_all
PUBLIC	?_Adopt@_Iterator_base0@std@@QAAXPBX@Z		; std::_Iterator_base0::_Adopt
; Function compile flags: /Ogsu

	.code

?_Adopt@_Iterator_base0@std@@QAAXPBX@Z PROC NEAR		; std::_Iterator_base0::_Adopt, COMDAT

; Begin code for function: ?_Adopt@_Iterator_base0@std@@QAAXPBX@Z
; Line 49
	blr
; End code for function: ?_Adopt@_Iterator_base0@std@@QAAXPBX@Z
?_Adopt@_Iterator_base0@std@@QAAXPBX@Z ENDP
							; std::_Iterator_base0::_Adopt
PUBLIC	?HvxGetVersions@@YAXHHI_JK@Z			; HvxGetVersions
; Function compile flags: /Odsu

	.code

?HvxGetVersions@@YAXHHI_JK@Z PROC NEAR			; HvxGetVersions, COMDAT

; Begin code for function: ?HvxGetVersions@@YAXHHI_JK@Z
; File c:\users\permanulled\desktop\trainer_engine\trainer engine\trainer\common.h
; Line 34
	li           r0,0
; Line 35
	sc
; Line 36
	blr
; End code for function: ?HvxGetVersions@@YAXHHI_JK@Z
?HvxGetVersions@@YAXHHI_JK@Z ENDP
							; HvxGetVersions
PUBLIC	__real@00000000
PUBLIC	??0CVector@@QAA@XZ				; CVector::CVector
;	COMDAT __real@00000000
; File c:\users\permanulled\desktop\trainer_engine\trainer engine\trainer\mw3.h
.rdata	SEGMENT
__real@00000000 DD 000000000r			; 0
; Function compile flags: /Ogsu

	.code

??0CVector@@QAA@XZ PROC NEAR				; CVector::CVector, COMDAT

; Begin code for function: ??0CVector@@QAA@XZ
; Line 45
	lis          r11,__real@00000000
	lfs          fr0,__real@00000000(r11)
	stfs         fr0,0(r3)
	stfs         fr0,4(r3)
	stfs         fr0,8(r3)
	blr
; End code for function: ??0CVector@@QAA@XZ
??0CVector@@QAA@XZ ENDP
							; CVector::CVector
PUBLIC	??0CColor@@QAA@EEEE@Z				; CColor::CColor
; Function compile flags: /Ogsu

	.code

??0CColor@@QAA@EEEE@Z PROC NEAR				; CColor::CColor, COMDAT

; Begin code for function: ??0CColor@@QAA@EEEE@Z
; Line 59
	stb          r4,0(r3)
	stb          r5,1(r3)
	stb          r6,2(r3)
	stb          r7,3(r3)
; Line 60
	blr
; End code for function: ??0CColor@@QAA@EEEE@Z
??0CColor@@QAA@EEEE@Z ENDP
							; CColor::CColor
PUBLIC	?flColor@?1??FloatPtr@CColor@@QBAPAMXZ@4PAMA	; `CColor::FloatPtr'::`2'::flColor
PUBLIC	__real@3b808081
PUBLIC	?FloatPtr@CColor@@QBAPAMXZ			; CColor::FloatPtr
;	COMDAT ?flColor@?1??FloatPtr@CColor@@QBAPAMXZ@4PAMA
.bss	SEGMENT
?flColor@?1??FloatPtr@CColor@@QBAPAMXZ@4PAMA DD 04H DUP (?) ; `CColor::FloatPtr'::`2'::flColor
;	COMDAT __real@3b808081
.rdata	SEGMENT
__real@3b808081 DD 03b808081r			; 0.00392157
; Function compile flags: /Ogsu

	.code
tv144 = -16						; size = 8
tv137 = -16						; size = 8
tv130 = -16						; size = 8
tv69 = -16						; size = 8

?FloatPtr@CColor@@QBAPAMXZ PROC NEAR			; CColor::FloatPtr, COMDAT

; Begin code for function: ?FloatPtr@CColor@@QBAPAMXZ
; Line 76
	lbz          r10,0(r3)
; Line 81
	lis          r9,__real@3b808081
	lis          r8,?flColor@?1??FloatPtr@CColor@@QBAPAMXZ@4PAMA
	mr           r11,r3
	addi         r7,r8,?flColor@?1??FloatPtr@CColor@@QBAPAMXZ@4PAMA
	std          r10,-10h(r1)
	lfd          fr0,-10h(r1)
	fcfid        fr13,fr0
	lfs          fr0,__real@3b808081(r9)
	frsp         fr13,fr13
	mr           r3,r7
	fmuls        fr13,fr13,fr0
	stfs         fr13,?flColor@?1??FloatPtr@CColor@@QBAPAMXZ@4PAMA(r8)
	lbz          r10,1(r11)
	std          r10,-10h(r1)
	lfd          fr13,-10h(r1)
	fcfid        fr13,fr13
	frsp         fr13,fr13
	fmuls        fr13,fr13,fr0
	stfs         fr13,4(r7)
	lbz          r10,2(r11)
	std          r10,-10h(r1)
	lfd          fr13,-10h(r1)
	fcfid        fr13,fr13
	frsp         fr13,fr13
	fmuls        fr13,fr13,fr0
	stfs         fr13,8(r7)
	lbz          r11,3(r11)
	std          r11,-10h(r1)
	lfd          fr13,-10h(r1)
	fcfid        fr13,fr13
	frsp         fr13,fr13
	fmuls        fr0,fr13,fr0
	stfs         fr0,0Ch(r7)
; Line 82
	blr
; End code for function: ?FloatPtr@CColor@@QBAPAMXZ
?FloatPtr@CColor@@QBAPAMXZ ENDP
							; CColor::FloatPtr
PUBLIC	?Vec3DistanceSq@@YAMPBM0@Z			; Vec3DistanceSq
; Function compile flags: /Ogsu

	.code

?Vec3DistanceSq@@YAMPBM0@Z PROC NEAR			; Vec3DistanceSq, COMDAT

; Begin code for function: ?Vec3DistanceSq@@YAMPBM0@Z
; Line 200
	lfs          fr13,8(r3)
	lfs          fr0,8(r4)
	fsubs        fr0,fr0,fr13
	lfs          fr12,4(r3)
	lfs          fr13,4(r4)
	fsubs        fr13,fr13,fr12
	lfs          fr12,0(r4)
	lfs          fr11,0(r3)
	fsubs        fr12,fr12,fr11
	fmuls        fr0,fr0,fr0
	fmadds       fr0,fr13,fr13,fr0
	fmadds       fr1,fr12,fr12,fr0
; Line 201
	blr
; End code for function: ?Vec3DistanceSq@@YAMPBM0@Z
?Vec3DistanceSq@@YAMPBM0@Z ENDP
							; Vec3DistanceSq
PUBLIC	__real@3caaaaab
PUBLIC	?Distance@@YAMPAM0@Z				; Distance
;	COMDAT __real@3caaaaab
; File d:\program files (x86)\microsoft xbox 360 sdk\include\xbox\math.h
.rdata	SEGMENT
__real@3caaaaab DD 03caaaaabr			; 0.0208333
; Function compile flags: /Ogsu

	.code

?Distance@@YAMPAM0@Z PROC NEAR				; Distance, COMDAT

; Begin code for function: ?Distance@@YAMPAM0@Z
; File c:\users\permanulled\desktop\trainer_engine\trainer engine\trainer\mw3.h
; Line 204
	lfs          fr0,8(r4)
	lis          r11,__real@3caaaaab
	lfs          fr13,8(r3)
	fsubs        fr13,fr0,fr13
	lfs          fr0,4(r4)
	lfs          fr12,4(r3)
	fsubs        fr12,fr0,fr12
	lfs          fr0,0(r4)
	lfs          fr11,0(r3)
	fsubs        fr11,fr0,fr11
	lfs          fr0,__real@3caaaaab(r11)
	fmuls        fr13,fr13,fr13
	fmadds       fr13,fr12,fr12,fr13
	fmadds       fr13,fr11,fr11,fr13
	fsqrts       fr13,fr13
	fmuls        fr1,fr13,fr0
; Line 207
	blr
; End code for function: ?Distance@@YAMPAM0@Z
?Distance@@YAMPAM0@Z ENDP
							; Distance
PUBLIC	?GetCGame@@YAPAUcg_t@@H@Z			; GetCGame
; Function compile flags: /Ogsu

	.code

?GetCGame@@YAPAUcg_t@@H@Z PROC NEAR			; GetCGame, COMDAT

; Begin code for function: ?GetCGame@@YAPAUcg_t@@H@Z
; Line 230
	lis          r11,-32156		; 8264h
	lis          r10,16		; 10h
	ori          r9,r10,23168		; 5A80h
; Line 231
	lwz          r10,-11A0h(r11)
	mullw        r11,r3,r9
	add          r3,r11,r10
; Line 232
	blr
; End code for function: ?GetCGame@@YAPAUcg_t@@H@Z
?GetCGame@@YAPAUcg_t@@H@Z ENDP
							; GetCGame
PUBLIC	?IsBoneVisible@@YA_NHPAUentity_t@@PBD@Z		; IsBoneVisible
;	COMDAT .pdata
.pdata	SEGMENT
$T89841	DD	?IsBoneVisible@@YA_NHPAUentity_t@@PBD@Z
	DD	040001905H
; Function compile flags: /Ogsu

	.code

?IsBoneVisible@@YA_NHPAUentity_t@@PBD@Z	PROC NEAR	; IsBoneVisible, COMDAT

; Begin code for function: ?IsBoneVisible@@YA_NHPAUentity_t@@PBD@Z
; Line 252
	mflr         r12
	stw          r12,-8(r1)
	std          r30,-18h(r1)
	std          r31,-10h(r1)
	stwu         r1,-70h(r1)
.endprolog
$M89839:
; Line 253
	lis          r11,?GScr_AllocString@@3P6AIPBD@ZA
	mr           r31,r3
	mr           r3,r5
	mr           r30,r4
	lwz          r11,?GScr_AllocString@@3P6AIPBD@ZA(r11)
	mtctr        r11
	bctrl
; Line 254
	lis          r11,?AimTarget_IsTargetVisible@@3P6A_NHPAUentity_t@@I@ZA
	mr           r5,r3
	mr           r4,r30
	mr           r3,r31
	lwz          r11,?AimTarget_IsTargetVisible@@3P6A_NHPAUentity_t@@I@ZA(r11)
	mtctr        r11
	bctrl
; Line 255
	addi         r1,r1,112		; 70h
	lwz          r12,-8(r1)
	mtlr         r12
	ld           r30,-18h(r1)
	ld           r31,-10h(r1)
	blr
$M89840:
; End code for function: ?IsBoneVisible@@YA_NHPAUentity_t@@PBD@Z
?IsBoneVisible@@YA_NHPAUentity_t@@PBD@Z ENDP
							; IsBoneVisible
PUBLIC	?IsVisible@@YA_NHPAUentity_t@@@Z		; IsVisible
EXTRN	__restgprlr_26:PROC
EXTRN	__savegprlr_26:PROC
;	COMDAT .pdata
.pdata	SEGMENT
$T89852	DD	?IsVisible@@YA_NHPAUentity_t@@@Z
	DD	040001f03H
; Function compile flags: /Ogsu

	.code

?IsVisible@@YA_NHPAUentity_t@@@Z PROC NEAR		; IsVisible, COMDAT

; Begin code for function: ?IsVisible@@YA_NHPAUentity_t@@@Z
; Line 258
	mflr         r12
	bl           __savegprlr_26
	stwu         r1,-90h(r1)
.endprolog
$M89850:
; Line 259
	lis          r11,?Bones@@3PAPADA
	mr           r30,r3
	addi         r28,r11,?Bones@@3PAPADA
	mr           r29,r4
	mr           r31,r28
	lis          r26,?AimTarget_IsTargetVisible@@3P6A_NHPAUentity_t@@I@ZA
	lis          r27,?GScr_AllocString@@3P6AIPBD@ZA
$LL4@IsVisible:						; Start of loop
; Line 261
	lwz          r11,?GScr_AllocString@@3P6AIPBD@ZA(r27)
	lwz          r3,0(r31)
	mtctr        r11
	bctrl
; Line 263
	lwz          r11,?AimTarget_IsTargetVisible@@3P6A_NHPAUentity_t@@I@ZA(r26)
	mr           r5,r3
	mr           r4,r29
	mr           r3,r30
	mtctr        r11
	bctrl
	clrlwi.      r11,r3,24
	bne          $LN8@IsVisible
; Line 259
	addi         r31,r31,4
	addi         r11,r28,80		; 50h
	cmpw         cr6,r31,r11
	blt          cr6,$LL4@IsVisible
; Line 270
	li           r3,0
$LN5@IsVisible:
; Line 271
	addi         r1,r1,144		; 90h
	b            __restgprlr_26
$LN8@IsVisible:
; Line 265
	li           r3,1
	b            $LN5@IsVisible
$M89851:
; End code for function: ?IsVisible@@YA_NHPAUentity_t@@@Z
?IsVisible@@YA_NHPAUentity_t@@@Z ENDP
							; IsVisible
PUBLIC	?GetTagPos@@YA_NHPAUentity_t@@PBDPAVCVector@@@Z	; GetTagPos
EXTRN	__restgprlr_29:PROC
EXTRN	__savegprlr_29:PROC
;	COMDAT .pdata
.pdata	SEGMENT
$T89860	DD	?GetTagPos@@YA_NHPAUentity_t@@PBDPAVCVector@@@Z
	DD	040001c03H
; Function compile flags: /Ogsu

	.code

?GetTagPos@@YA_NHPAUentity_t@@PBDPAVCVector@@@Z	PROC NEAR ; GetTagPos, COMDAT

; Begin code for function: ?GetTagPos@@YA_NHPAUentity_t@@PBDPAVCVector@@@Z
; Line 275
	mflr         r12
	bl           __savegprlr_29
	stwu         r1,-70h(r1)
.endprolog
$M89858:
	mr           r31,r3
	mr           r30,r4
	mr           r29,r6
; Line 276
	cmpwi        cr6,r3,0
	beq          cr6,$LN1@GetTagPos
	cmpwi        cr6,r3,1
	beq          cr6,$LN1@GetTagPos
; Line 277
	li           r3,0
	b            $LN2@GetTagPos
$LN1@GetTagPos:
; Line 279
	lis          r11,?GScr_AllocString@@3P6AIPBD@ZA
	mr           r3,r5
	lwz          r11,?GScr_AllocString@@3P6AIPBD@ZA(r11)
	mtctr        r11
	bctrl
; Line 281
	lis          r11,?AimTarget_GetTagPos@@3P6AXHPAUentity_t@@IPAVCVector@@@ZA
	mr           r5,r3
	mr           r6,r29
	mr           r4,r30
	mr           r3,r31
	lwz          r11,?AimTarget_GetTagPos@@3P6AXHPAUentity_t@@IPAVCVector@@@ZA(r11)
	mtctr        r11
	bctrl
; Line 282
	li           r3,1
$LN2@GetTagPos:
; Line 283
	addi         r1,r1,112		; 70h
	b            __restgprlr_29
$M89859:
; End code for function: ?GetTagPos@@YA_NHPAUentity_t@@PBDPAVCVector@@@Z
?GetTagPos@@YA_NHPAUentity_t@@PBDPAVCVector@@@Z ENDP
							; GetTagPos
PUBLIC	??_C@_0O@JNHDBJMB@DoNothing?3?5?$CFi?$AA@	; `string'
PUBLIC	?JustHereForBP@@YAXXZ				; JustHereForBP
EXTRN	printf:PROC
;	COMDAT ??_C@_0O@JNHDBJMB@DoNothing?3?5?$CFi?$AA@
.rdata	SEGMENT
??_C@_0O@JNHDBJMB@DoNothing?3?5?$CFi?$AA@ DB 'DoNothing: %i', 00H ; `string'
; Function compile flags: /Ogsu

	.code

?JustHereForBP@@YAXXZ PROC NEAR				; JustHereForBP, COMDAT

; Begin code for function: ?JustHereForBP@@YAXXZ
; Line 289
	lis          r11,?PrintCur@@3_NA
	lbz          r11,?PrintCur@@3_NA(r11)
	cmplwi       cr6,r11,1
	bnelr        cr6
; Line 291
	lis          r11,??_C@_0O@JNHDBJMB@DoNothing?3?5?$CFi?$AA@
	li           r4,1
	addi         r3,r11,??_C@_0O@JNHDBJMB@DoNothing?3?5?$CFi?$AA@
	b            printf
$LN1@JustHereFo:
	blr
; End code for function: ?JustHereForBP@@YAXXZ
?JustHereForBP@@YAXXZ ENDP
							; JustHereForBP
PUBLIC	__real@3f800000
PUBLIC	??_C@_05PMAELIEO@white?$AA@			; `string'
PUBLIC	?DrawRect@@YAXMMMMABVCColor@@@Z			; DrawRect
EXTRN	__restfpr_28:PROC
EXTRN	__savefpr_28:PROC
;	COMDAT ?pMaterial@?1??DrawRect@@YAXMMMMABVCColor@@@Z@4KA
.bss	SEGMENT
?pMaterial@?1??DrawRect@@YAXMMMMABVCColor@@@Z@4KA DD 01H DUP (?) ; `DrawRect'::`2'::pMaterial
;	COMDAT ?$S1@?1??DrawRect@@YAXMMMMABVCColor@@@Z@4IA
.bss	SEGMENT
?$S1@?1??DrawRect@@YAXMMMMABVCColor@@@Z@4IA DD 01H DUP (?) ; `DrawRect'::`2'::$S1
;	COMDAT .pdata
.pdata	SEGMENT
$T89873	DD	?DrawRect@@YAXMMMMABVCColor@@@Z
	DD	040003205H
;	COMDAT __real@3f800000
.rdata	SEGMENT
__real@3f800000 DD 03f800000r			; 1
;	COMDAT ??_C@_05PMAELIEO@white?$AA@
.rdata	SEGMENT
??_C@_05PMAELIEO@white?$AA@ DB 'white', 00H		; `string'
; Function compile flags: /Ogsu

	.code

?DrawRect@@YAXMMMMABVCColor@@@Z	PROC NEAR		; DrawRect, COMDAT

; Begin code for function: ?DrawRect@@YAXMMMMABVCColor@@@Z
; Line 297
	mflr         r12
	bl           __savegprlr_29
	addi         r12,r1,-32		; 0FFE0h
	bl           __savefpr_28
	stwu         r1,-0A0h(r1)
.endprolog
$M89871:
; Line 298
	lis          r10,?$S1@?1??DrawRect@@YAXMMMMABVCColor@@@Z@4IA
	fmr          fr31,fr1
	fmr          fr30,fr2
	mr           r29,r7
	fmr          fr29,fr3
	lis          r30,?pMaterial@?1??DrawRect@@YAXMMMMABVCColor@@@Z@4KA
	fmr          fr28,fr4
	lwz          r11,?$S1@?1??DrawRect@@YAXMMMMABVCColor@@@Z@4IA(r10)
	clrlwi.      r9,r11,31
	bne          $LN4@DrawRect
	ori          r11,r11,1
	lis          r9,?Material_RegisterHandle@@3P6AKPBDH@ZA
	stw          r11,?$S1@?1??DrawRect@@YAXMMMMABVCColor@@@Z@4IA(r10)
	lis          r11,??_C@_05PMAELIEO@white?$AA@
	li           r4,7
	addi         r3,r11,??_C@_05PMAELIEO@white?$AA@
	lwz          r11,?Material_RegisterHandle@@3P6AKPBDH@ZA(r9)
	mtctr        r11
	bctrl
	mr           r31,r3
	stw          r3,?pMaterial@?1??DrawRect@@YAXMMMMABVCColor@@@Z@4KA(r30)
	b            $LN1@DrawRect
$LN4@DrawRect:
	lwz          r31,?pMaterial@?1??DrawRect@@YAXMMMMABVCColor@@@Z@4KA(r30)
$LN1@DrawRect:
; Line 300
	mr           r3,r29
	bl           ?FloatPtr@CColor@@QBAPAMXZ
	lis          r11,__real@3f800000
	lis          r9,?CL_DrawStretchPicPhysical@@3P6AXMMMMMMMMPAMK@ZA
	stw          r3,54h(r1)
	lis          r10,__real@00000000
	stw          r31,5Ch(r1)
	fmr          fr4,fr28
	fmr          fr3,fr29
	lfs          fr8,__real@3f800000(r11)
	fmr          fr2,fr30
	lwz          r11,?CL_DrawStretchPicPhysical@@3P6AXMMMMMMMMPAMK@ZA(r9)
	fmr          fr1,fr31
	lfs          fr6,__real@00000000(r10)
	fmr          fr7,fr8
	fmr          fr5,fr6
	mtctr        r11
	bctrl
; Line 301
	addi         r1,r1,160		; 0A0h
	addi         r12,r1,-32		; 0FFE0h
	bl           __restfpr_28
	b            __restgprlr_29
$M89872:
; End code for function: ?DrawRect@@YAXMMMMABVCColor@@@Z
?DrawRect@@YAXMMMMABVCColor@@@Z ENDP
							; DrawRect
PUBLIC	?DrawBox@@YAXMMMMABVCColor@@M@Z			; DrawBox
EXTRN	__restfpr_27:PROC
EXTRN	__savefpr_27:PROC
;	COMDAT .pdata
.pdata	SEGMENT
$T89881	DD	?DrawBox@@YAXMMMMABVCColor@@M@Z
	DD	040002906H
; Function compile flags: /Ogsu

	.code

?DrawBox@@YAXMMMMABVCColor@@M@Z	PROC NEAR		; DrawBox, COMDAT

; Begin code for function: ?DrawBox@@YAXMMMMABVCColor@@M@Z
; Line 304
	mflr         r12
	stw          r12,-8(r1)
	std          r31,-10h(r1)
	addi         r12,r1,-16		; 0FFF0h
	bl           __savefpr_27
	stwu         r1,-90h(r1)
.endprolog
$M89879:
	fmr          fr28,fr4
	mr           r31,r7
	fmr          fr31,fr1
	fmr          fr30,fr2
	fmr          fr29,fr3
	fmr          fr27,fr5
; Line 305
	fmr          fr4,fr5
	bl           ?DrawRect@@YAXMMMMABVCColor@@@Z
; Line 306
	mr           r7,r31
	fmr          fr1,fr31
	fmr          fr4,fr28
	fmr          fr3,fr27
	fmr          fr2,fr30
	bl           ?DrawRect@@YAXMMMMABVCColor@@@Z
; Line 307
	fadds        fr0,fr31,fr29
	mr           r7,r31
	fmr          fr4,fr28
	fmr          fr3,fr27
	fmr          fr2,fr30
	fsubs        fr1,fr0,fr27
	bl           ?DrawRect@@YAXMMMMABVCColor@@@Z
; Line 308
	fadds        fr0,fr30,fr28
	mr           r7,r31
	fmr          fr4,fr27
	fmr          fr3,fr29
	fmr          fr1,fr31
	fsubs        fr2,fr0,fr27
	bl           ?DrawRect@@YAXMMMMABVCColor@@@Z
; Line 310
	addi         r1,r1,144		; 90h
	addi         r12,r1,-16		; 0FFF0h
	bl           __restfpr_27
	lwz          r12,-8(r1)
	mtlr         r12
	ld           r31,-10h(r1)
	blr
$M89880:
; End code for function: ?DrawBox@@YAXMMMMABVCColor@@M@Z
?DrawBox@@YAXMMMMABVCColor@@M@Z ENDP
							; DrawBox
PUBLIC	__real@3e800000
PUBLIC	?DrawCorners@@YAXMMMMABVCColor@@@Z		; DrawCorners
EXTRN	__restfpr_23:PROC
EXTRN	__savefpr_23:PROC
;	COMDAT .pdata
.pdata	SEGMENT
$T89891	DD	?DrawCorners@@YAXMMMMABVCColor@@@Z
	DD	040005506H
;	COMDAT __real@3e800000
.rdata	SEGMENT
__real@3e800000 DD 03e800000r			; 0.25
; Function compile flags: /Ogsu

	.code

?DrawCorners@@YAXMMMMABVCColor@@@Z PROC NEAR		; DrawCorners, COMDAT

; Begin code for function: ?DrawCorners@@YAXMMMMABVCColor@@@Z
; Line 313
	mflr         r12
	stw          r12,-8(r1)
	std          r31,-10h(r1)
	addi         r12,r1,-16		; 0FFF0h
	bl           __savefpr_23
	stwu         r1,-0B0h(r1)
.endprolog
$M89889:
; Line 315
	lis          r11,__real@3e800000
	fmr          fr29,fr1
; Line 317
	lis          r10,__real@3f800000
	fmr          fr27,fr2
	fmr          fr26,fr3
	mr           r31,r7
	fmr          fr24,fr4
	lfs          fr0,__real@3e800000(r11)
	fmuls        fr30,fr3,fr0
	lfs          fr31,__real@3f800000(r10)
	fmuls        fr28,fr4,fr0
	fcmpu        cr6,fr30,fr31
	bge          cr6,$LN2@DrawCorner
; Line 318
	fmr          fr30,fr31
$LN2@DrawCorner:
; Line 320
	mr           r7,r31
	fmr          fr4,fr31
	fmr          fr3,fr30
	fmr          fr2,fr27
	fmr          fr1,fr29
	bl           ?DrawRect@@YAXMMMMABVCColor@@@Z
; Line 321
	fadds        fr25,fr29,fr26
	mr           r7,r31
	fmr          fr4,fr31
	fmr          fr3,fr30
	fmr          fr2,fr27
	fsubs        fr0,fr25,fr30
	fadds        fr23,fr0,fr31
	fmr          fr1,fr23
	bl           ?DrawRect@@YAXMMMMABVCColor@@@Z
; Line 322
	fadds        fr26,fr27,fr24
	mr           r7,r31
	fmr          fr4,fr31
	fmr          fr3,fr30
	fmr          fr1,fr29
	fmr          fr2,fr26
	bl           ?DrawRect@@YAXMMMMABVCColor@@@Z
; Line 323
	mr           r7,r31
	fmr          fr4,fr31
	fmr          fr3,fr30
	fmr          fr2,fr26
	fmr          fr1,fr23
	bl           ?DrawRect@@YAXMMMMABVCColor@@@Z
; Line 325
	lis          r11,__real@00000000
	lfs          fr0,__real@00000000(r11)
	fcmpu        cr6,fr28,fr0
	ble          cr6,$LN1@DrawCorner
; Line 327
	fadds        fr30,fr27,fr31
	mr           r7,r31
	fmr          fr4,fr28
	fmr          fr3,fr31
	fmr          fr1,fr29
	fmr          fr2,fr30
	bl           ?DrawRect@@YAXMMMMABVCColor@@@Z
; Line 328
	mr           r7,r31
	fmr          fr4,fr28
	fmr          fr3,fr31
	fmr          fr2,fr30
	fmr          fr1,fr25
	bl           ?DrawRect@@YAXMMMMABVCColor@@@Z
; Line 329
	fsubs        fr30,fr26,fr28
	mr           r7,r31
	fmr          fr4,fr28
	fmr          fr3,fr31
	fmr          fr1,fr29
	fmr          fr2,fr30
	bl           ?DrawRect@@YAXMMMMABVCColor@@@Z
; Line 330
	mr           r7,r31
	fmr          fr4,fr28
	fmr          fr3,fr31
	fmr          fr2,fr30
	fmr          fr1,fr25
	bl           ?DrawRect@@YAXMMMMABVCColor@@@Z
$LN1@DrawCorner:
; Line 332
	addi         r1,r1,176		; 0B0h
	addi         r12,r1,-16		; 0FFF0h
	bl           __restfpr_23
	lwz          r12,-8(r1)
	mtlr         r12
	ld           r31,-10h(r1)
	blr
$M89890:
; End code for function: ?DrawCorners@@YAXMMMMABVCColor@@@Z
?DrawCorners@@YAXMMMMABVCColor@@@Z ENDP
							; DrawCorners
PUBLIC	__real@41600000
PUBLIC	??_C@_0BC@GJDPOBNP@fonts?1consoleFont?$AA@	; `string'
PUBLIC	?DrawString@@YAXMMABVCColor@@_NPAD@Z		; DrawString
EXTRN	__restgprlr_28:PROC
EXTRN	__savegprlr_28:PROC
;	COMDAT ?pFont@?1??DrawString@@YAXMMABVCColor@@_NPAD@Z@4KA
.bss	SEGMENT
?pFont@?1??DrawString@@YAXMMABVCColor@@_NPAD@Z@4KA DD 01H DUP (?) ; `DrawString'::`2'::pFont
;	COMDAT ?$S2@?1??DrawString@@YAXMMABVCColor@@_NPAD@Z@4IA
.bss	SEGMENT
?$S2@?1??DrawString@@YAXMMABVCColor@@_NPAD@Z@4IA DD 01H DUP (?) ; `DrawString'::`2'::$S2
;	COMDAT .pdata
.pdata	SEGMENT
$T89902	DD	?DrawString@@YAXMMABVCColor@@_NPAD@Z
	DD	040003305H
;	COMDAT __real@41600000
.rdata	SEGMENT
__real@41600000 DD 041600000r			; 14
;	COMDAT ??_C@_0BC@GJDPOBNP@fonts?1consoleFont?$AA@
.rdata	SEGMENT
??_C@_0BC@GJDPOBNP@fonts?1consoleFont?$AA@ DB 'fonts/consoleFont', 00H ; `string'
; Function compile flags: /Ogsu

	.code

?DrawString@@YAXMMABVCColor@@_NPAD@Z PROC NEAR		; DrawString, COMDAT

; Begin code for function: ?DrawString@@YAXMMABVCColor@@_NPAD@Z
; Line 335
	mflr         r12
	bl           __savegprlr_28
	stfd         fr30,-38h(r1)
	stfd         fr31,-30h(r1)
	stwu         r1,-90h(r1)
.endprolog
$M89900:
; Line 336
	lis          r10,?$S2@?1??DrawString@@YAXMMABVCColor@@_NPAD@Z@4IA
	fmr          fr31,fr1
	fmr          fr30,fr2
	mr           r29,r5
	mr           r28,r7
	lis          r30,?pFont@?1??DrawString@@YAXMMABVCColor@@_NPAD@Z@4KA
	lwz          r11,?$S2@?1??DrawString@@YAXMMABVCColor@@_NPAD@Z@4IA(r10)
	clrlwi.      r9,r11,31
	bne          $LN4@DrawString
	ori          r11,r11,1
	lis          r9,?CL_RegisterFont@@3P6AKPBDH@ZA
	stw          r11,?$S2@?1??DrawString@@YAXMMABVCColor@@_NPAD@Z@4IA(r10)
	lis          r11,??_C@_0BC@GJDPOBNP@fonts?1consoleFont?$AA@
	li           r4,1
	addi         r3,r11,??_C@_0BC@GJDPOBNP@fonts?1consoleFont?$AA@
	lwz          r11,?CL_RegisterFont@@3P6AKPBDH@ZA(r9)
	mtctr        r11
	bctrl
	mr           r31,r3
	stw          r3,?pFont@?1??DrawString@@YAXMMABVCColor@@_NPAD@Z@4KA(r30)
	b            $LN1@DrawString
$LN4@DrawString:
	lwz          r31,?pFont@?1??DrawString@@YAXMMABVCColor@@_NPAD@Z@4KA(r30)
$LN1@DrawString:
; Line 338
	mr           r3,r29
	bl           ?FloatPtr@CColor@@QBAPAMXZ
	lis          r9,?CL_DrawTextPhysical@@3P6AXPBDHKMMMMPAMH@ZA
	lis          r11,__real@3f800000
	fmr          fr1,fr31
	lis          r8,__real@41600000
	lis          r4,32767		; 7FFFh
	mr           r10,r3
	lwz          r9,?CL_DrawTextPhysical@@3P6AXPBDHKMMMMPAMH@ZA(r9)
	mr           r5,r31
	lfs          fr4,__real@3f800000(r11)
	li           r11,3
	lfs          fr0,__real@41600000(r8)
	ori          r4,r4,65535		; 0FFFFh
	mr           r3,r28
	stw          r11,54h(r1)
	fadds        fr2,fr30,fr0
	mtctr        r9
	fmr          fr3,fr4
	bctrl
; Line 339
	addi         r1,r1,144		; 90h
	lfd          fr30,-38h(r1)
	lfd          fr31,-30h(r1)
	b            __restgprlr_28
$M89901:
; End code for function: ?DrawString@@YAXMMABVCColor@@_NPAD@Z
?DrawString@@YAXMMABVCColor@@_NPAD@Z ENDP
							; DrawString
PUBLIC	?DrawStringEx@@YAXMMABVCColor@@_NPADZZ		; DrawStringEx
EXTRN	sprintf:PROC
;	COMDAT .pdata
.pdata	SEGMENT
$T89908	DD	?DrawStringEx@@YAXMMABVCColor@@_NPADZZ
	DD	04000240aH
; Function compile flags: /Ogsu

	.code
vArgList$ = 80						; size = 4
szStringBuffer$ = 96					; size = 1024
pszString$ = 1220					; size = 4

?DrawStringEx@@YAXMMABVCColor@@_NPADZZ PROC NEAR		; DrawStringEx, COMDAT

; Begin code for function: ?DrawStringEx@@YAXMMABVCColor@@_NPADZZ
; Line 342
	mflr         r12
	stw          r12,-8(r1)
	std          r30,-18h(r1)
	std          r31,-10h(r1)
	stfd         fr30,-28h(r1)
	stfd         fr31,-20h(r1)
	std          r8,38h(r1)
	std          r9,40h(r1)
	std          r10,48h(r1)
	stwu         r1,-490h(r1)
.endprolog
$M89906:
; Line 346
	stw          r7,pszString$(r1)		; 1220 (4C4h)
	addi         r11,r1,vArgList$
	addi         r10,r1,pszString$+4
; Line 347
	fmr          fr31,fr1
	addi         r3,r1,szStringBuffer$
	fmr          fr30,fr2
	mr           r4,r7
	mr           r31,r5
	stw          r10,0(r11)
	mr           r30,r6
	lwz          r5,vArgList$(r1)		; 80 (50h)
	bl           sprintf
; Line 350
	addi         r7,r1,szStringBuffer$
	mr           r6,r30
	fmr          fr2,fr30
	mr           r5,r31
	fmr          fr1,fr31
	bl           ?DrawString@@YAXMMABVCColor@@_NPAD@Z
; Line 352
	addi         r1,r1,1168		; 490h
	lwz          r12,-8(r1)
	mtlr         r12
	lfd          fr30,-28h(r1)
	lfd          fr31,-20h(r1)
	ld           r30,-18h(r1)
	ld           r31,-10h(r1)
	blr
$M89907:
; End code for function: ?DrawStringEx@@YAXMMABVCColor@@_NPADZZ
?DrawStringEx@@YAXMMABVCColor@@_NPADZZ ENDP
							; DrawStringEx
PUBLIC	??_H@YAXPAXIHP6APAX0@Z@Z			; `vector constructor iterator'
;	COMDAT .pdata
.pdata	SEGMENT
$T89916	DD	??_H@YAXPAXIHP6APAX0@Z@Z
	DD	040001003H
; Function compile flags: /Ogsu

	.code

??_H@YAXPAXIHP6APAX0@Z@Z PROC NEAR			; `vector constructor iterator', COMDAT

; Begin code for function: ??_H@YAXPAXIHP6APAX0@Z@Z
	mflr         r12
	bl           __savegprlr_28
	stwu         r1,-80h(r1)
.endprolog
$M89914:
	mr           r30,r3
	mr           r29,r4
	mr           r28,r6
	addic.       r31,r5,-1		; 0FFFFh
	blt          $LN1@vector
$LL2@vector:						; Start of loop
	mr           r3,r30
	mtctr        r28
	bctrl
	addic.       r31,r31,-1		; 0FFFFh
	add          r30,r30,r29
	bge          $LL2@vector
$LN1@vector:
	addi         r1,r1,128		; 80h
	b            __restgprlr_28
$M89915:
; End code for function: ??_H@YAXPAXIHP6APAX0@Z@Z
??_H@YAXPAXIHP6APAX0@Z@Z ENDP
							; `vector constructor iterator'
PUBLIC	??_C@_0P@GFGNOCPG@Distance?3?5?$CFi?5m?$AA@	; `string'
PUBLIC	??_C@_09IGNDJJLI@Explosive?$AA@			; `string'
PUBLIC	??_C@_0BG@MHEMDNEA@Explosive?5?9?5?$CBWARNING?$CB?$AA@ ; `string'
PUBLIC	__real@41200000
PUBLIC	__real@41f00000
PUBLIC	__real@3f000000
PUBLIC	__real@42200000
PUBLIC	??_C@_0BA@PDAAHOGL@exbls?8?5MW3?5Hook?$AA@	; `string'
PUBLIC	__real@41a00000
PUBLIC	?DoStuff@@YAXH@Z				; DoStuff
EXTRN	__restgprlr_14:PROC
EXTRN	__restfpr_22:PROC
EXTRN	__savefpr_22:PROC
EXTRN	__savegprlr_14:PROC
;	COMDAT ?$S3@?BG@??DoStuff@@YAXH@Z@4IA
.bss	SEGMENT
?$S3@?BG@??DoStuff@@YAXH@Z@4IA DD 01H DUP (?)		; `DoStuff'::`22'::$S3
;	COMDAT ?nFont@?BG@??DoStuff@@YAXH@Z@4KA
.bss	SEGMENT
?nFont@?BG@??DoStuff@@YAXH@Z@4KA DD 01H DUP (?)		; `DoStuff'::`22'::nFont
;	COMDAT ?nFont@?CE@??DoStuff@@YAXH@Z@4KA
.bss	SEGMENT
?nFont@?CE@??DoStuff@@YAXH@Z@4KA DD 01H DUP (?)		; `DoStuff'::`36'::nFont
;	COMDAT .pdata
.pdata	SEGMENT
$T89982	DD	?DoStuff@@YAXH@Z
	DD	040016205H
;	COMDAT ??_C@_0P@GFGNOCPG@Distance?3?5?$CFi?5m?$AA@
.rdata	SEGMENT
??_C@_0P@GFGNOCPG@Distance?3?5?$CFi?5m?$AA@ DB 'Distance: %i m', 00H ; `string'
;	COMDAT ??_C@_09IGNDJJLI@Explosive?$AA@
.rdata	SEGMENT
??_C@_09IGNDJJLI@Explosive?$AA@ DB 'Explosive', 00H	; `string'
;	COMDAT ??_C@_0BG@MHEMDNEA@Explosive?5?9?5?$CBWARNING?$CB?$AA@
.rdata	SEGMENT
??_C@_0BG@MHEMDNEA@Explosive?5?9?5?$CBWARNING?$CB?$AA@ DB 'Explosive - !W'
	DB	'ARNING!', 00H				; `string'
;	COMDAT __real@41200000
.rdata	SEGMENT
__real@41200000 DD 041200000r			; 10
;	COMDAT __real@41f00000
.rdata	SEGMENT
__real@41f00000 DD 041f00000r			; 30
;	COMDAT __real@3f000000
.rdata	SEGMENT
__real@3f000000 DD 03f000000r			; 0.5
;	COMDAT __real@42200000
.rdata	SEGMENT
__real@42200000 DD 042200000r			; 40
;	COMDAT ??_C@_0BA@PDAAHOGL@exbls?8?5MW3?5Hook?$AA@
.rdata	SEGMENT
??_C@_0BA@PDAAHOGL@exbls?8?5MW3?5Hook?$AA@ DB 'exbls'' MW3 Hook', 00H ; `string'
;	COMDAT __real@41a00000
.rdata	SEGMENT
__real@41a00000 DD 041a00000r			; 20
; Function compile flags: /Ogsu

	.code
expY$86541 = 80						; size = 4
expX$86540 = 84						; size = 4
vecScreen$86557 = 88					; size = 12
pGame$ = 100						; size = 4
tv709 = 104						; size = 4
pLocalEntity$ = 108					; size = 4
i$86521 = 112						; size = 4
vecBox$86558 = 120					; size = 12
vecBaseLocation$86555 = 136				; size = 12
iLocalIndex$ = 148					; size = 4
pLocalClient$ = 152					; size = 4
pEntities$ = 156					; size = 4
vecLocation$86554 = 160					; size = 12
tv628 = 176						; size = 8
DistanceString$86535 = 192				; size = 255
localClientNum$ = 708					; size = 4

?DoStuff@@YAXH@Z PROC NEAR				; DoStuff, COMDAT

; Begin code for function: ?DoStuff@@YAXH@Z
; Line 358
	mflr         r12
	bl           __savegprlr_14
	addi         r12,r1,-152		; 0FF68h
	bl           __savefpr_22
	stwu         r1,-2B0h(r1)
.endprolog
$M89980:
	mr           r31,r3
	stw          r3,localClientNum$(r1)		; 708 (2C4h)
; Line 360
	cmpwi        cr6,r3,1
	beq          cr6,$LN22@DoStuff
	cmpwi        cr6,r3,0
	bne          cr6,$LN46@DoStuff
$LN22@DoStuff:
; Line 363
	lis          r11,__real@41a00000
	lis          r10,??_C@_0BA@PDAAHOGL@exbls?8?5MW3?5Hook?$AA@
	lis          r9,?colGreen@@3VCColor@@A
	addi         r7,r10,??_C@_0BA@PDAAHOGL@exbls?8?5MW3?5Hook?$AA@
	addi         r5,r9,?colGreen@@3VCColor@@A
	lfs          fr30,__real@41a00000(r11)
	li           r6,0
	fmr          fr2,fr30
	fmr          fr1,fr30
	bl           ?DrawString@@YAXMMABVCColor@@_NPAD@Z
; Line 367
	lis          r11,?ppEntities@@3PAPAUentity_t@@A
	lis          r10,-32156		; 8264h
	lis          r9,16		; 10h
	ori          r9,r9,23168		; 5A80h
	mullw        r9,r31,r9
	lwz          r11,?ppEntities@@3PAPAUentity_t@@A(r11)
	lwz          r10,-11A0h(r10)
	add.         r25,r9,r10
; Line 369
	lwz          r29,0(r11)
	stw          r25,pGame$(r1)		; 100 (64h)
	stw          r29,pEntities$(r1)		; 156 (9Ch)
	beq          $LN46@DoStuff
	cmplwi       cr6,r29,0
	beq          cr6,$LN46@DoStuff
	lis          r11,?ppGame_s@@3PAPAUcgs_t@@A
	lwz          r11,?ppGame_s@@3PAPAUcgs_t@@A(r11)
	lwz          r11,0(r11)
	cmpwi        cr6,r11,0
	beq          cr6,$LN46@DoStuff
; Line 372
	lwz          r31,335Ch(r25)
; Line 374
	cmpwi        cr6,r31,0
	beq          cr6,$LN46@DoStuff
; Line 377
	lwz          r10,150h(r25)
; Line 384
	li           r9,0
	lwz          r8,330Ch(r31)
	mulli        r11,r10,1428		; 594h
	stw          r9,i$86521(r1)		; 112 (70h)
	stw          r10,iLocalIndex$(r1)		; 148 (94h)
	add          r11,r11,r25
	mulli        r10,r10,492		; 1ECh
	addis        r11,r11,16		; 10h
	add          r10,r10,r29
	addi         r11,r11,-8312		; 0DF88h
	stw          r10,pLocalEntity$(r1)		; 108 (6Ch)
	cmpwi        cr6,r8,0
	stw          r11,pLocalClient$(r1)		; 152 (98h)
	ble          cr6,$LN46@DoStuff
; Line 377
	stw          r9,68h(r1)
	lis          r11,__real@42200000
	lis          r10,__real@3f000000
	lis          r9,__real@00000000
	lis          r8,__real@41f00000
	lis          r7,__real@3f800000
	lis          r6,__real@41200000
	lfs          fr27,__real@42200000(r11)
	lis          r5,__real@3caaaaab
	lfs          fr25,__real@3f000000(r10)
	lfs          fr26,__real@00000000(r9)
	lis          r11,?colYellow@@3VCColor@@A
	lfs          fr28,__real@41f00000(r8)
	lis          r10,?colRed@@3VCColor@@A
	lfs          fr23,__real@3f800000(r7)
	lis          r9,??_C@_06FNLDLNAB@j_head?$AA@
	lfs          fr24,__real@41200000(r6)
	lis          r8,??_C@_0BG@MHEMDNEA@Explosive?5?9?5?$CBWARNING?$CB?$AA@
	lfs          fr22,__real@3caaaaab(r5)
	lis          r7,?colCyan@@3VCColor@@A
	lis          r6,??_C@_09IGNDJJLI@Explosive?$AA@
	lis          r5,?colBlue@@3VCColor@@A
	lis          r4,??_C@_0BC@GJDPOBNP@fonts?1consoleFont?$AA@
	lis          r3,??_C@_0P@GFGNOCPG@Distance?3?5?$CFi?5m?$AA@
	lis          r24,?nFont@?CE@??DoStuff@@YAXH@Z@4KA
	lis          r27,?CL_RegisterFont@@3P6AKPBDH@ZA
	lis          r23,?nFont@?BG@??DoStuff@@YAXH@Z@4KA
	lis          r30,?$S3@?BG@??DoStuff@@YAXH@Z@4IA
	lis          r26,?CG_CalcNamePosition@@3P6AXHPAVCVector@@PAM1@ZA
	lis          r16,?OnSameTeam@@3P6AHPAUentity_t@@0@ZA
	addi         r22,r11,?colYellow@@3VCColor@@A
	addi         r21,r10,?colRed@@3VCColor@@A
	addi         r17,r9,??_C@_06FNLDLNAB@j_head?$AA@
	addi         r15,r8,??_C@_0BG@MHEMDNEA@Explosive?5?9?5?$CBWARNING?$CB?$AA@
	addi         r20,r7,?colCyan@@3VCColor@@A
	addi         r14,r6,??_C@_09IGNDJJLI@Explosive?$AA@
	addi         r19,r5,?colBlue@@3VCColor@@A
	addi         r28,r4,??_C@_0BC@GJDPOBNP@fonts?1consoleFont?$AA@
	addi         r18,r3,??_C@_0P@GFGNOCPG@Distance?3?5?$CFi?5m?$AA@
	b            $LN18@DoStuff
$LL48@DoStuff:						; Start of loop
	lwz          r29,pEntities$(r1)		; 156 (9Ch)
$LN18@DoStuff:
; Line 386
	lwz          r11,68h(r1)
; Line 391
	lwz          r9,iLocalIndex$(r1)		; 148 (94h)
	add          r11,r11,r31
	lwz          r11,3314h(r11)
	mulli        r10,r11,492		; 1ECh
	add          r29,r10,r29
	cmpw         cr6,r11,r9
	beq          cr6,$LN17@DoStuff
	lwz          r10,0CCh(r29)
	cmplwi       cr6,r10,32		; 20h
	beq          cr6,$LN17@DoStuff
; Line 395
	lwz          r10,0C8h(r29)
	cmplwi       cr6,r10,1
	beq          cr6,$LN13@DoStuff
	cmplwi       cr6,r10,4
	bne          cr6,$LN17@DoStuff
$LN13@DoStuff:
; Line 399
	mulli        r11,r11,1428		; 594h
	add          r11,r11,r25
	addis        r25,r11,16		; 10h
	addi         r25,r25,-8312		; 0DF88h
; Line 401
	lwz          r11,0(r25)
	cmpwi        cr6,r11,0
	bne          cr6,$LN12@DoStuff
	cmplwi       cr6,r10,4
	bne          cr6,$LN49@DoStuff
$LN12@DoStuff:
; Line 404
	lwz          r11,pLocalEntity$(r1)		; 108 (6Ch)
; Line 407
	lfs          fr0,1Ch(r29)
	lfs          fr13,18h(r29)
	mr           r4,r18
	lfs          fr12,14h(r29)
	addi         r3,r1,DistanceString$86535
	addi         r31,r29,20		; 14h
	lfs          fr11,1Ch(r11)
	fsubs        fr0,fr11,fr0
	lfs          fr11,18h(r11)
	fsubs        fr13,fr11,fr13
	lfs          fr11,14h(r11)
	fsubs        fr12,fr11,fr12
	fmuls        fr0,fr0,fr0
	fmadds       fr0,fr13,fr13,fr0
	fmadds       fr0,fr12,fr12,fr0
	fsqrts       fr0,fr0
	fmuls        fr31,fr0,fr22
	fctiwz       fr0,fr31
	stfd         fr0,0B0h(r1)
	lwz          r5,0B4h(r1)
	bl           sprintf
; Line 410
	lwz          r11,0C8h(r29)
	cmplwi       cr6,r11,4
	bne          cr6,$LN7@DoStuff
; Line 412
	lwz          r11,?OnSameTeam@@3P6AHPAUentity_t@@0@ZA(r16)
	mr           r3,r29
	lwz          r4,pLocalEntity$(r1)		; 108 (6Ch)
	mtctr        r11
	bctrl
	cmpwi        r3,0
	bne          $LN7@DoStuff
; Line 417
	lwz          r11,?CG_CalcNamePosition@@3P6AXHPAVCVector@@PAM1@ZA(r26)
	addi         r6,r1,expY$86541
	addi         r5,r1,expX$86540
	lwz          r3,localClientNum$(r1)		; 708 (2C4h)
	mr           r4,r31
	mtctr        r11
	bctrl
; Line 419
	lwz          r11,?$S3@?BG@??DoStuff@@YAXH@Z@4IA(r30)
	clrlwi.      r10,r11,31
	bne          $LN9@DoStuff
	ori          r11,r11,1
	lwz          r10,?CL_RegisterFont@@3P6AKPBDH@ZA(r27)
	mr           r3,r28
	stw          r11,?$S3@?BG@??DoStuff@@YAXH@Z@4IA(r30)
	li           r4,1
	mtctr        r10
	bctrl
	stw          r3,?nFont@?BG@??DoStuff@@YAXH@Z@4KA(r23)
$LN9@DoStuff:
; Line 432
	fcmpu        cr6,fr31,fr30
	bgt          cr6,$LN8@DoStuff
	fcmpu        cr6,fr31,fr24
	ble          cr6,$LN8@DoStuff
; Line 434
	lfs          fr0,expY$86541(r1)		; 80 (50h)
	mr           r7,r19
	lfs          fr13,expX$86540(r1)		; 84 (54h)
	fmr          fr5,fr23
	fmr          fr4,fr30
	fmr          fr3,fr30
	fsubs        fr2,fr0,fr24
	fsubs        fr1,fr13,fr24
	bl           ?DrawBox@@YAXMMMMABVCColor@@M@Z
; Line 436
	lfs          fr0,expY$86541(r1)		; 80 (50h)
	mr           r7,r14
	mr           r5,r19
	lfs          fr1,expX$86540(r1)		; 84 (54h)
	li           r6,0
	fsubs        fr2,fr0,fr28
	bl           ?DrawString@@YAXMMABVCColor@@_NPAD@Z
; Line 437
	lfs          fr0,expY$86541(r1)		; 80 (50h)
	mr           r5,r19
	lfs          fr1,expX$86540(r1)		; 84 (54h)
	addi         r7,r1,DistanceString$86535
	fsubs        fr2,fr0,fr30
	li           r6,0
	bl           ?DrawString@@YAXMMABVCColor@@_NPAD@Z
$LN8@DoStuff:
; Line 440
	fcmpu        cr6,fr31,fr24
	bgt          cr6,$LN7@DoStuff
; Line 442
	lfs          fr0,expY$86541(r1)		; 80 (50h)
	mr           r7,r20
	lfs          fr13,expX$86540(r1)		; 84 (54h)
	fmr          fr5,fr23
	fmr          fr4,fr30
	fmr          fr3,fr30
	fsubs        fr2,fr0,fr24
	fsubs        fr1,fr13,fr24
	bl           ?DrawBox@@YAXMMMMABVCColor@@M@Z
; Line 444
	lfs          fr0,expY$86541(r1)		; 80 (50h)
	mr           r7,r15
	mr           r5,r20
	lfs          fr1,expX$86540(r1)		; 84 (54h)
	li           r6,0
	fsubs        fr2,fr0,fr28
	bl           ?DrawString@@YAXMMABVCColor@@_NPAD@Z
; Line 445
	lfs          fr0,expY$86541(r1)		; 80 (50h)
	mr           r5,r20
	lfs          fr1,expX$86540(r1)		; 84 (54h)
	addi         r7,r1,DistanceString$86535
	fsubs        fr2,fr0,fr30
	li           r6,0
	bl           ?DrawString@@YAXMMABVCColor@@_NPAD@Z
$LN7@DoStuff:
; Line 457
	lwz          r11,0C8h(r29)
	cmplwi       cr6,r11,1
	bne          cr6,$LN49@DoStuff
; Line 459
	lwz          r11,pLocalClient$(r1)		; 152 (98h)
	lwz          r11,2Ch(r11)
	cmpwi        cr6,r11,0
	beq          cr6,$LN25@DoStuff
	lwz          r10,2Ch(r25)
	subf         r11,r10,r11
	addic        r10,r11,-1		; 0FFFFh
	subfe        r11,r10,r11
	b            $LN26@DoStuff
$LN25@DoStuff:
	li           r11,1
$LN26@DoStuff:
; Line 461
	clrlwi.      r11,r11,24
	beq          $LN49@DoStuff
; Line 463
	stfs         fr26,vecLocation$86554(r1)		; 160 (0A0h)
; Line 467
	mr           r5,r17
	stfs         fr26,vecLocation$86554+4(r1)		; 164 (0A4h)
	addi         r6,r1,vecLocation$86554
	stfs         fr26,vecLocation$86554+8(r1)		; 168 (0A8h)
	mr           r4,r29
	stfs         fr26,vecBaseLocation$86555(r1)		; 136 (88h)
	lwz          r3,localClientNum$(r1)		; 708 (2C4h)
	stfs         fr26,vecBaseLocation$86555+4(r1)		; 140 (8Ch)
	stfs         fr26,vecBaseLocation$86555+8(r1)		; 144 (90h)
	bl           ?GetTagPos@@YA_NHPAUentity_t@@PBDPAVCVector@@@Z
	clrlwi.      r11,r3,24
	beq          $LN46@DoStuff
; Line 468
	lwz          r11,0(r31)
; Line 473
	addi         r6,r1,vecScreen$86557+4
	lwz          r10,4(r31)
	addi         r5,r1,vecScreen$86557
	lwz          r9,8(r31)
	stfs         fr26,vecScreen$86557(r1)		; 88 (58h)
	stfs         fr26,vecScreen$86557+4(r1)		; 92 (5Ch)
	lwz          r8,?CG_CalcNamePosition@@3P6AXHPAVCVector@@PAM1@ZA(r26)
	stfs         fr26,vecScreen$86557+8(r1)		; 96 (60h)
	lwz          r31,localClientNum$(r1)		; 708 (2C4h)
	stfs         fr26,vecBox$86558(r1)		; 120 (78h)
	stw          r11,vecBaseLocation$86555(r1)		; 136 (88h)
	stfs         fr26,vecBox$86558+4(r1)		; 124 (7Ch)
	stw          r10,vecBaseLocation$86555+4(r1)		; 140 (8Ch)
	stfs         fr26,vecBox$86558+8(r1)		; 128 (80h)
	stw          r9,vecBaseLocation$86555+8(r1)		; 144 (90h)
	mr           r3,r31
	mtctr        r8
	addi         r4,r1,vecLocation$86554
	bctrl
; Line 474
	lwz          r11,?CG_CalcNamePosition@@3P6AXHPAVCVector@@PAM1@ZA(r26)
	addi         r6,r1,vecBox$86558+4
	addi         r5,r1,vecBox$86558
	addi         r4,r1,vecBaseLocation$86555
	mr           r3,r31
	mtctr        r11
	bctrl
; Line 481
	lfs          fr0,vecScreen$86557+4(r1)		; 92 (5Ch)
	lfs          fr13,vecBox$86558+4(r1)		; 124 (7Ch)
	lwz          r11,?$S3@?BG@??DoStuff@@YAXH@Z@4IA(r30)
	fsubs        fr29,fr13,fr0
	rlwinm.      r10,r11,0,30,30
	fmuls        fr31,fr29,fr25
	lfs          fr0,vecBox$86558(r1)		; 120 (78h)
	stfs         fr0,vecScreen$86557(r1)		; 88 (58h)
	bne          $LN3@DoStuff
	ori          r11,r11,2
	lwz          r10,?CL_RegisterFont@@3P6AKPBDH@ZA(r27)
	mr           r3,r28
	stw          r11,?$S3@?BG@??DoStuff@@YAXH@Z@4IA(r30)
	li           r4,1
	mtctr        r10
	bctrl
	stw          r3,?nFont@?CE@??DoStuff@@YAXH@Z@4KA(r24)
$LN3@DoStuff:
; Line 484
	mr           r4,r29
	mr           r3,r31
	bl           ?IsVisible@@YA_NHPAUentity_t@@@Z
; Line 486
	lfs          fr0,vecScreen$86557(r1)		; 88 (58h)
	lfs          fr2,vecScreen$86557+4(r1)		; 92 (5Ch)
	clrlwi.      r11,r3,24
	fmr          fr4,fr29
	fmr          fr3,fr31
	fnmsubs      fr1,fr31,fr25,fr0
	beq          $LN2@DoStuff
	mr           r7,r21
	fmr          fr5,fr23
	bl           ?DrawBox@@YAXMMMMABVCColor@@M@Z
; Line 488
	lfs          fr0,vecScreen$86557+4(r1)		; 92 (5Ch)
	lfs          fr13,vecScreen$86557(r1)		; 88 (58h)
	mr           r5,r21
	addi         r7,r25,12		; 0Ch
	fsubs        fr2,fr0,fr30
	li           r6,0
	fsubs        fr1,fr13,fr27
	bl           ?DrawString@@YAXMMABVCColor@@_NPAD@Z
; Line 489
	mr           r5,r21
; Line 491
	b            $LN50@DoStuff
$LN2@DoStuff:
; Line 493
	mr           r7,r22
	bl           ?DrawCorners@@YAXMMMMABVCColor@@@Z
; Line 495
	lfs          fr0,vecScreen$86557+4(r1)		; 92 (5Ch)
	lfs          fr13,vecScreen$86557(r1)		; 88 (58h)
	mr           r5,r22
	addi         r7,r25,12		; 0Ch
	fsubs        fr2,fr0,fr30
	li           r6,0
	fsubs        fr1,fr13,fr27
	bl           ?DrawString@@YAXMMABVCColor@@_NPAD@Z
; Line 496
	mr           r5,r22
$LN50@DoStuff:
	lfs          fr0,vecScreen$86557+4(r1)		; 92 (5Ch)
	addi         r7,r1,DistanceString$86535
	lfs          fr13,vecScreen$86557(r1)		; 88 (58h)
	li           r6,0
	fsubs        fr2,fr0,fr28
	fsubs        fr1,fr13,fr27
	bl           ?DrawString@@YAXMMABVCColor@@_NPAD@Z
$LN49@DoStuff:
	lwz          r25,pGame$(r1)		; 100 (64h)
$LN17@DoStuff:
; Line 384
	lwz          r31,335Ch(r25)
	lwz          r11,i$86521(r1)		; 112 (70h)
	lwz          r10,68h(r1)
	addi         r11,r11,1
	addi         r10,r10,256		; 100h
	lwz          r9,330Ch(r31)
	stw          r11,i$86521(r1)		; 112 (70h)
	stw          r10,68h(r1)
	cmpw         cr6,r11,r9
	blt          cr6,$LL48@DoStuff
$LN46@DoStuff:
; Line 507
	addi         r1,r1,688		; 2B0h
	addi         r12,r1,-152		; 0FF68h
	bl           __restfpr_22
	b            __restgprlr_14
$M89981:
; End code for function: ?DoStuff@@YAXH@Z
?DoStuff@@YAXH@Z ENDP
							; DoStuff
; Function compile flags: /Odsu

	.code

?PostRenderHookSaveVar@@YAXXZ PROC NEAR			; PostRenderHookSaveVar, COMDAT

; Begin code for function: ?PostRenderHookSaveVar@@YAXXZ
; Line 515
	li           r3,909		; 38Dh
; Line 516
	nop
; Line 517
	nop
; Line 518
	nop
; Line 519
	nop
; Line 520
	nop
; Line 521
	nop
; Line 522
	blr
; End code for function: ?PostRenderHookSaveVar@@YAXXZ
?PostRenderHookSaveVar@@YAXXZ ENDP
							; PostRenderHookSaveVar
PUBLIC	?PostRenderHook@@YAXH@Z				; PostRenderHook
;	COMDAT .pdata
.pdata	SEGMENT
$T89990	DD	?PostRenderHook@@YAXH@Z
	DD	040001004H
; Function compile flags: /Ogsu

	.code

?PostRenderHook@@YAXH@Z	PROC NEAR			; PostRenderHook, COMDAT

; Begin code for function: ?PostRenderHook@@YAXH@Z
; Line 532
	mflr         r12
	stw          r12,-8(r1)
	std          r31,-10h(r1)
	stwu         r1,-60h(r1)
.endprolog
$M89988:
; Line 534
	lis          r11,?PostRenderHookSave@@3P6AXH@ZA
	mr           r31,r3
	lwz          r11,?PostRenderHookSave@@3P6AXH@ZA(r11)
	mtctr        r11
	bctrl
; Line 535
	mr           r3,r31
	bl           ?DoStuff@@YAXH@Z
; Line 536
	addi         r1,r1,96		; 60h
	lwz          r12,-8(r1)
	mtlr         r12
	ld           r31,-10h(r1)
	blr
$M89989:
; End code for function: ?PostRenderHook@@YAXH@Z
?PostRenderHook@@YAXH@Z ENDP
							; PostRenderHook
; Function compile flags: /Odsu

	.code

?SetTextureSaveVar@@YAXXZ PROC NEAR			; SetTextureSaveVar, COMDAT

; Begin code for function: ?SetTextureSaveVar@@YAXXZ
; Line 640
	li           r3,455		; 1C7h
; Line 641
	nop
; Line 642
	nop
; Line 643
	nop
; Line 644
	nop
; Line 645
	nop
; Line 646
	nop
; Line 647
	blr
; End code for function: ?SetTextureSaveVar@@YAXXZ
?SetTextureSaveVar@@YAXXZ ENDP
							; SetTextureSaveVar
PUBLIC	?SetTextureHook@@YAJPAUD3DDevice@@IPAUD3DBaseTexture@@_K@Z ; SetTextureHook
EXTRN	D3DXCreateTextureFromFileInMemory:PROC
EXTRN	__restgprlr_27:PROC
EXTRN	__savegprlr_27:PROC
;	COMDAT .pdata
.pdata	SEGMENT
$T90000	DD	?SetTextureHook@@YAJPAUD3DDevice@@IPAUD3DBaseTexture@@_K@Z
	DD	040002403H
; Function compile flags: /Ogsu

	.code

?SetTextureHook@@YAJPAUD3DDevice@@IPAUD3DBaseTexture@@_K@Z PROC NEAR ; SetTextureHook, COMDAT

; Begin code for function: ?SetTextureHook@@YAJPAUD3DDevice@@IPAUD3DBaseTexture@@_K@Z
; Line 659
	mflr         r12
	bl           __savegprlr_27
	stwu         r1,-80h(r1)
.endprolog
$M89998:
; Line 660
	lis          r11,?RunOnce@@3_NA
	mr           r31,r3
	mr           r29,r4
	mr           r28,r5
	mr           r27,r6
	lbz          r10,?RunOnce@@3_NA(r11)
	cmplwi       cr6,r10,1
	bne          cr6,$LN1@SetTexture
; Line 662
	li           r10,0
; Line 663
	lis          r9,bAqua
	stb          r10,?RunOnce@@3_NA(r11)
	lis          r11,?g_pTexGreen@@3PAUD3DTexture@@A
	addi         r30,r9,bAqua
	addi         r6,r11,?g_pTexGreen@@3PAUD3DTexture@@A
	addi         r4,r30,60		; 3Ch
	li           r5,60		; 3Ch
	bl           D3DXCreateTextureFromFileInMemory
; Line 664
	lis          r11,?g_pTexBlue@@3PAUD3DTexture@@A
	mr           r4,r30
	addi         r6,r11,?g_pTexBlue@@3PAUD3DTexture@@A
	li           r5,60		; 3Ch
	mr           r3,r31
	bl           D3DXCreateTextureFromFileInMemory
$LN1@SetTexture:
; Line 698
	lis          r11,?SetTextureSave@@3P6AJPAUD3DDevice@@IPAUD3DBaseTexture@@_K@ZA
	mr           r6,r27
	mr           r5,r28
	mr           r4,r29
	mr           r3,r31
	lwz          r11,?SetTextureSave@@3P6AJPAUD3DDevice@@IPAUD3DBaseTexture@@_K@ZA(r11)
	mtctr        r11
	bctrl
; Line 699
	addi         r1,r1,128		; 80h
	b            __restgprlr_27
$M89999:
; End code for function: ?SetTextureHook@@YAJPAUD3DDevice@@IPAUD3DBaseTexture@@_K@Z
?SetTextureHook@@YAJPAUD3DDevice@@IPAUD3DBaseTexture@@_K@Z ENDP
							; SetTextureHook
; Function compile flags: /Odsu

	.code

?DrawIndexedVerticesSaveVar@@YAXXZ PROC NEAR		; DrawIndexedVerticesSaveVar, COMDAT

; Begin code for function: ?DrawIndexedVerticesSaveVar@@YAXXZ
; Line 704
	li           r3,454		; 1C6h
; Line 705
	nop
; Line 706
	nop
; Line 707
	nop
; Line 708
	nop
; Line 709
	nop
; Line 710
	nop
; Line 711
	blr
; End code for function: ?DrawIndexedVerticesSaveVar@@YAXXZ
?DrawIndexedVerticesSaveVar@@YAXXZ ENDP
							; DrawIndexedVerticesSaveVar
PUBLIC	?DrawIndexedVerticesHook@@YAJPAUD3DDevice@@HHII@Z ; DrawIndexedVerticesHook
; Function compile flags: /Ogsu

	.code

?DrawIndexedVerticesHook@@YAJPAUD3DDevice@@HHII@Z PROC NEAR ; DrawIndexedVerticesHook, COMDAT

; Begin code for function: ?DrawIndexedVerticesHook@@YAJPAUD3DDevice@@HHII@Z
; Line 824
	lis          r11,?DrawIndexedVerticesSave@@3P6AJPAUD3DDevice@@HHII@ZA
	lwz          r11,?DrawIndexedVerticesSave@@3P6AJPAUD3DDevice@@HHII@ZA(r11)
	mtctr        r11
	bctr
; End code for function: ?DrawIndexedVerticesHook@@YAJPAUD3DDevice@@HHII@Z
?DrawIndexedVerticesHook@@YAJPAUD3DDevice@@HHII@Z ENDP
							; DrawIndexedVerticesHook
PUBLIC	??_C@_1CC@PHGPILIK@R?$AAa?$AAi?$AAn?$AAb?$AAo?$AAw?$AA?5?$AAW?$AAo?$AAr?$AAl?$AAd?$AA?5?$AAO?$AAn?$AA?$AA?$AA@ ; `string'
PUBLIC	??_C@_1EC@FICHMLMO@H?$AAa?$AAx?$AA?5?$AAA?$AAc?$AAt?$AAi?$AAv?$AAa?$AAt?$AAe?$AAd?$AA?5?$AA?9?$AA?5?$AAW?$AAa?$AAl?$AAl?$AAH?$AAa?$AAx?$AA?$CL?$AAN?$AAa?$AAm?$AAe?$AA?5?$AAE?$AAS?$AAP?$AA@ ; `string'
PUBLIC	?PatchDrawVert@@YAXXZ				; PatchDrawVert
EXTRN	XShowMessageBoxUI:PROC
EXTRN	?hookFunctionStart@@YAXPAK00K@Z:PROC		; hookFunctionStart
	.bss
PostRenderHookOld DD 04H DUP (?)
;	COMDAT .pdata
.pdata	SEGMENT
$T90010	DD	?PatchDrawVert@@YAXXZ
	DD	040002603H
;	COMDAT ??_C@_1CC@PHGPILIK@R?$AAa?$AAi?$AAn?$AAb?$AAo?$AAw?$AA?5?$AAW?$AAo?$AAr?$AAl?$AAd?$AA?5?$AAO?$AAn?$AA?$AA?$AA@
.rdata	SEGMENT
??_C@_1CC@PHGPILIK@R?$AAa?$AAi?$AAn?$AAb?$AAo?$AAw?$AA?5?$AAW?$AAo?$AAr?$AAl?$AAd?$AA?5?$AAO?$AAn?$AA?$AA?$AA@ DB 00H
	DB	'R', 00H, 'a', 00H, 'i', 00H, 'n', 00H, 'b', 00H, 'o', 00H, 'w'
	DB	00H, ' ', 00H, 'W', 00H, 'o', 00H, 'r', 00H, 'l', 00H, 'd', 00H
	DB	' ', 00H, 'O', 00H, 'n', 00H, 00H		; `string'
;	COMDAT ??_C@_1EC@FICHMLMO@H?$AAa?$AAx?$AA?5?$AAA?$AAc?$AAt?$AAi?$AAv?$AAa?$AAt?$AAe?$AAd?$AA?5?$AA?9?$AA?5?$AAW?$AAa?$AAl?$AAl?$AAH?$AAa?$AAx?$AA?$CL?$AAN?$AAa?$AAm?$AAe?$AA?5?$AAE?$AAS?$AAP?$AA@
.rdata	SEGMENT
??_C@_1EC@FICHMLMO@H?$AAa?$AAx?$AA?5?$AAA?$AAc?$AAt?$AAi?$AAv?$AAa?$AAt?$AAe?$AAd?$AA?5?$AA?9?$AA?5?$AAW?$AAa?$AAl?$AAl?$AAH?$AAa?$AAx?$AA?$CL?$AAN?$AAa?$AAm?$AAe?$AA?5?$AAE?$AAS?$AAP?$AA@ DB 00H
	DB	'H', 00H, 'a', 00H, 'x', 00H, ' ', 00H, 'A', 00H, 'c', 00H, 't'
	DB	00H, 'i', 00H, 'v', 00H, 'a', 00H, 't', 00H, 'e', 00H, 'd', 00H
	DB	' ', 00H, '-', 00H, ' ', 00H, 'W', 00H, 'a', 00H, 'l', 00H, 'l'
	DB	00H, 'H', 00H, 'a', 00H, 'x', 00H, '+', 00H, 'N', 00H, 'a', 00H
	DB	'm', 00H, 'e', 00H, ' ', 00H, 'E', 00H, 'S', 00H, 'P', 00H, 00H ; `string'
; Function compile flags: /Ogsu

	.code

?PatchDrawVert@@YAXXZ PROC NEAR				; PatchDrawVert, COMDAT

; Begin code for function: ?PatchDrawVert@@YAXXZ
; Line 833
	mflr         r12
	stw          r12,-8(r1)
	stwu         r1,-60h(r1)
.endprolog
$M90008:
; Line 839
	lis          r11,-32239		; 8211h
	lis          r10,32136		; 7D88h
	ori          r10,r10,678		; 2A6h
	lwz          r11,5308h(r11)
	cmpw         cr6,r11,r10
	bne          cr6,$LN1@PatchDrawV
; Line 841
	lis          r11,?PostRenderHook@@YAXH@Z
	lis          r10,PostRenderHookOld
	lis          r9,?PostRenderHookSaveVar@@YAXXZ
	lis          r3,-32239		; 8211h
	addi         r5,r10,PostRenderHookOld
	addi         r6,r11,?PostRenderHook@@YAXH@Z
	addi         r4,r9,?PostRenderHookSaveVar@@YAXXZ
	ori          r3,r3,21256		; 5308h
	bl           ?hookFunctionStart@@YAXPAK00K@Z
; Line 842
	lis          r9,?g_strButtons@@3PAPB_WA
	lis          r8,??_C@_1EC@FICHMLMO@H?$AAa?$AAx?$AA?5?$AAA?$AAc?$AAt?$AAi?$AAv?$AAa?$AAt?$AAe?$AAd?$AA?5?$AA?9?$AA?5?$AAW?$AAa?$AAl?$AAl?$AAH?$AAa?$AAx?$AA?$CL?$AAN?$AAa?$AAm?$AAe?$AA?5?$AAE?$AAS?$AAP?$AA@
	lis          r6,??_C@_1CC@PHGPILIK@R?$AAa?$AAi?$AAn?$AAb?$AAo?$AAw?$AA?5?$AAW?$AAo?$AAr?$AAl?$AAd?$AA?5?$AAO?$AAn?$AA?$AA?$AA@
	lis          r11,?g_xol@@3U_XOVERLAPPED@@A
	lis          r10,?g_mb_result@@3U_MESSAGEBOX_RESULT@@A
	addi         r11,r11,?g_xol@@3U_XOVERLAPPED@@A
	addi         r7,r9,?g_strButtons@@3PAPB_WA
	addi         r5,r8,??_C@_1EC@FICHMLMO@H?$AAa?$AAx?$AA?5?$AAA?$AAc?$AAt?$AAi?$AAv?$AAa?$AAt?$AAe?$AAd?$AA?5?$AA?9?$AA?5?$AAW?$AAa?$AAl?$AAl?$AAH?$AAa?$AAx?$AA?$CL?$AAN?$AAa?$AAm?$AAe?$AA?5?$AAE?$AAS?$AAP?$AA@
	stw          r11,54h(r1)
	addi         r4,r6,??_C@_1CC@PHGPILIK@R?$AAa?$AAi?$AAn?$AAb?$AAo?$AAw?$AA?5?$AAW?$AAo?$AAr?$AAl?$AAd?$AA?5?$AAO?$AAn?$AA?$AA?$AA@
	addi         r10,r10,?g_mb_result@@3U_MESSAGEBOX_RESULT@@A
	li           r9,0
	li           r8,0
	li           r6,1
	li           r3,0
	bl           XShowMessageBoxUI
$LN1@PatchDrawV:
; Line 844
	addi         r1,r1,96		; 60h
	lwz          r12,-8(r1)
	mtlr         r12
	blr
$M90009:
; End code for function: ?PatchDrawVert@@YAXXZ
?PatchDrawVert@@YAXXZ ENDP
							; PatchDrawVert
PUBLIC	?InitializeMe@@YAXXZ				; InitializeMe
EXTRN	Sleep:PROC
EXTRN	XamGetCurrentTitleId:PROC
;	COMDAT .pdata
; File c:\users\permanulled\desktop\trainer_engine\trainer engine\trainer\main.cpp
.pdata	SEGMENT
$T90016	DD	?InitializeMe@@YAXXZ
	DD	040000f03H
; Function compile flags: /Ogsu

	.code

?InitializeMe@@YAXXZ PROC NEAR				; InitializeMe, COMDAT

; Begin code for function: ?InitializeMe@@YAXXZ
; Line 25
	mflr         r12
	stw          r12,-8(r1)
	stwu         r1,-60h(r1)
.endprolog
$M90014:
; Line 28
	bl           XamGetCurrentTitleId
	lis          r11,16726		; 4156h
	ori          r11,r11,2251		; 8CBh
	cmplw        cr6,r3,r11
	bne          cr6,$LN1@Initialize
; Line 32
	bl           ?PatchDrawVert@@YAXXZ
$LN1@Initialize:
; Line 44
	li           r3,3000		; 0BB8h
	bl           Sleep
; Line 46
	addi         r1,r1,96		; 60h
	lwz          r12,-8(r1)
	mtlr         r12
	blr
$M90015:
; End code for function: ?InitializeMe@@YAXXZ
?InitializeMe@@YAXXZ ENDP
							; InitializeMe
PUBLIC	DllMain
;	COMDAT .pdata
.pdata	SEGMENT
$T90026	DD	DllMain
	DD	040001203H
; Function compile flags: /Ogsu

	.code

DllMain	PROC NEAR					; COMDAT

; Begin code for function: DllMain
; Line 49
	mflr         r12
	stw          r12,-8(r1)
	stwu         r1,-60h(r1)
.endprolog
$M90024:
; Line 50
	cmplwi       cr6,r4,1
	bne          cr6,$LN2@DllMain
; Line 53
	bl           XamGetCurrentTitleId
	lis          r11,16726		; 4156h
	ori          r11,r11,2251		; 8CBh
	cmplw        cr6,r3,r11
	bne          cr6,$LN6@DllMain
	bl           ?PatchDrawVert@@YAXXZ
$LN6@DllMain:
	li           r3,3000		; 0BB8h
	bl           Sleep
$LN2@DllMain:
; Line 57
	li           r3,1
; Line 58
	addi         r1,r1,96		; 60h
	lwz          r12,-8(r1)
	mtlr         r12
	blr
$M90025:
; End code for function: DllMain
DllMain	ENDP

PUBLIC	?size@?$vector@KV?$allocator@K@std@@@std@@QBAIXZ ; std::vector<unsigned long,std::allocator<unsigned long> >::size
; Function compile flags: /Ogsu

	.code

?size@?$vector@KV?$allocator@K@std@@@std@@QBAIXZ PROC NEAR ; std::vector<unsigned long,std::allocator<unsigned long> >::size, COMDAT

; Begin code for function: ?size@?$vector@KV?$allocator@K@std@@@std@@QBAIXZ
; File d:\program files (x86)\microsoft xbox 360 sdk\include\xbox\vector
; Line 879
	lwz          r11,4(r3)
	lwz          r10,0(r3)
	subf         r11,r10,r11
	srawi        r3,r11,2
; Line 880
	blr
; End code for function: ?size@?$vector@KV?$allocator@K@std@@@std@@QBAIXZ
?size@?$vector@KV?$allocator@K@std@@@std@@QBAIXZ ENDP
							; std::vector<unsigned long,std::allocator<unsigned long> >::size
PUBLIC	?empty@?$vector@KV?$allocator@K@std@@@std@@QBA_NXZ ; std::vector<unsigned long,std::allocator<unsigned long> >::empty
; Function compile flags: /Ogsu

	.code

?empty@?$vector@KV?$allocator@K@std@@@std@@QBA_NXZ PROC NEAR ; std::vector<unsigned long,std::allocator<unsigned long> >::empty, COMDAT

; Begin code for function: ?empty@?$vector@KV?$allocator@K@std@@@std@@QBA_NXZ
; Line 889
	lwz          r11,0(r3)
	lwz          r10,4(r3)
	subf         r11,r11,r10
	cntlzw       r11,r11
	rlwinm       r3,r11,27,31,31
; Line 890
	blr
; End code for function: ?empty@?$vector@KV?$allocator@K@std@@@std@@QBA_NXZ
?empty@?$vector@KV?$allocator@K@std@@@std@@QBA_NXZ ENDP
							; std::vector<unsigned long,std::allocator<unsigned long> >::empty
PUBLIC	??A?$vector@KV?$allocator@K@std@@@std@@QAAAAKI@Z ; std::vector<unsigned long,std::allocator<unsigned long> >::operator[]
; Function compile flags: /Ogsu

	.code

??A?$vector@KV?$allocator@K@std@@@std@@QAAAAKI@Z PROC NEAR ; std::vector<unsigned long,std::allocator<unsigned long> >::operator[], COMDAT

; Begin code for function: ??A?$vector@KV?$allocator@K@std@@@std@@QAAAAKI@Z
; Line 940
	lwz          r11,0(r3)
	slwi         r10,r4,2
	add          r3,r10,r11
; Line 941
	blr
; End code for function: ??A?$vector@KV?$allocator@K@std@@@std@@QAAAAKI@Z
??A?$vector@KV?$allocator@K@std@@@std@@QAAAAKI@Z ENDP
							; std::vector<unsigned long,std::allocator<unsigned long> >::operator[]
PUBLIC	?_Inside@?$vector@KV?$allocator@K@std@@@std@@IBA_NPBK@Z ; std::vector<unsigned long,std::allocator<unsigned long> >::_Inside
; Function compile flags: /Ogsu

	.code

?_Inside@?$vector@KV?$allocator@K@std@@@std@@IBA_NPBK@Z	PROC NEAR ; std::vector<unsigned long,std::allocator<unsigned long> >::_Inside, COMDAT

; Begin code for function: ?_Inside@?$vector@KV?$allocator@K@std@@@std@@IBA_NPBK@Z
; Line 1286
	lwz          r11,4(r3)
	cmplw        cr6,r4,r11
	bge          cr6,$LN3@Inside
	lwz          r11,0(r3)
	cmplw        cr6,r11,r4
	li           r11,1
	ble          cr6,$LN4@Inside
$LN3@Inside:
	li           r11,0
$LN4@Inside:
	clrlwi       r3,r11,24
; Line 1287
	blr
; End code for function: ?_Inside@?$vector@KV?$allocator@K@std@@@std@@IBA_NPBK@Z
?_Inside@?$vector@KV?$allocator@K@std@@@std@@IBA_NPBK@Z ENDP
							; std::vector<unsigned long,std::allocator<unsigned long> >::_Inside
PUBLIC	?_Orphan_range@?$vector@KV?$allocator@K@std@@@std@@IBAXPAK0@Z ; std::vector<unsigned long,std::allocator<unsigned long> >::_Orphan_range
; Function compile flags: /Ogsu

	.code

?_Orphan_range@?$vector@KV?$allocator@K@std@@@std@@IBAXPAK0@Z PROC NEAR ; std::vector<unsigned long,std::allocator<unsigned long> >::_Orphan_range, COMDAT

; Begin code for function: ?_Orphan_range@?$vector@KV?$allocator@K@std@@@std@@IBAXPAK0@Z
; Line 1454
	blr
; End code for function: ?_Orphan_range@?$vector@KV?$allocator@K@std@@@std@@IBAXPAK0@Z
?_Orphan_range@?$vector@KV?$allocator@K@std@@@std@@IBAXPAK0@Z ENDP
							; std::vector<unsigned long,std::allocator<unsigned long> >::_Orphan_range
PUBLIC	??1?$_Vector_val@KV?$allocator@K@std@@@std@@QAA@XZ ; std::_Vector_val<unsigned long,std::allocator<unsigned long> >::~_Vector_val<unsigned long,std::allocator<unsigned long> >
; Function compile flags: /Ogsu

	.code

??1?$_Vector_val@KV?$allocator@K@std@@@std@@QAA@XZ PROC NEAR ; std::_Vector_val<unsigned long,std::allocator<unsigned long> >::~_Vector_val<unsigned long,std::allocator<unsigned long> >, COMDAT

; Begin code for function: ??1?$_Vector_val@KV?$allocator@K@std@@@std@@QAA@XZ
; Line 434
	blr
; End code for function: ??1?$_Vector_val@KV?$allocator@K@std@@@std@@QAA@XZ
??1?$_Vector_val@KV?$allocator@K@std@@@std@@QAA@XZ ENDP
							; std::_Vector_val<unsigned long,std::allocator<unsigned long> >::~_Vector_val<unsigned long,std::allocator<unsigned long> >
PUBLIC	??0?$allocator@K@std@@QAA@XZ			; std::allocator<unsigned long>::allocator<unsigned long>
; Function compile flags: /Ogsu

	.code

??0?$allocator@K@std@@QAA@XZ PROC NEAR			; std::allocator<unsigned long>::allocator<unsigned long>, COMDAT

; Begin code for function: ??0?$allocator@K@std@@QAA@XZ
; File d:\program files (x86)\microsoft xbox 360 sdk\include\xbox\xmemory
; Line 163
	blr
; End code for function: ??0?$allocator@K@std@@QAA@XZ
??0?$allocator@K@std@@QAA@XZ ENDP
							; std::allocator<unsigned long>::allocator<unsigned long>
PUBLIC	?capacity@?$vector@KV?$allocator@K@std@@@std@@QBAIXZ ; std::vector<unsigned long,std::allocator<unsigned long> >::capacity
; Function compile flags: /Ogsu

	.code

?capacity@?$vector@KV?$allocator@K@std@@@std@@QBAIXZ PROC NEAR ; std::vector<unsigned long,std::allocator<unsigned long> >::capacity, COMDAT

; Begin code for function: ?capacity@?$vector@KV?$allocator@K@std@@@std@@QBAIXZ
; File d:\program files (x86)\microsoft xbox 360 sdk\include\xbox\vector
; Line 777
	lwz          r11,8(r3)
	lwz          r10,0(r3)
	subf         r11,r10,r11
	srawi        r3,r11,2
; Line 778
	blr
; End code for function: ?capacity@?$vector@KV?$allocator@K@std@@@std@@QBAIXZ
?capacity@?$vector@KV?$allocator@K@std@@@std@@QBAIXZ ENDP
							; std::vector<unsigned long,std::allocator<unsigned long> >::capacity
PUBLIC	??_C@_0BD@OLBABOEK@vector?$DMT?$DO?5too?5long?$AA@ ; `string'
PUBLIC	?_Xlen@?$vector@KV?$allocator@K@std@@@std@@IBAXXZ ; std::vector<unsigned long,std::allocator<unsigned long> >::_Xlen
EXTRN	?_Xlength_error@std@@YAXPBD@Z:PROC		; std::_Xlength_error
;	COMDAT ??_C@_0BD@OLBABOEK@vector?$DMT?$DO?5too?5long?$AA@
.rdata	SEGMENT
??_C@_0BD@OLBABOEK@vector?$DMT?$DO?5too?5long?$AA@ DB 'vector<T> too long'
	DB	00H						; `string'
; Function compile flags: /Ogsu

	.code

?_Xlen@?$vector@KV?$allocator@K@std@@@std@@IBAXXZ PROC NEAR ; std::vector<unsigned long,std::allocator<unsigned long> >::_Xlen, COMDAT

; Begin code for function: ?_Xlen@?$vector@KV?$allocator@K@std@@@std@@IBAXXZ
; Line 1427
	lis          r11,??_C@_0BD@OLBABOEK@vector?$DMT?$DO?5too?5long?$AA@
	addi         r3,r11,??_C@_0BD@OLBABOEK@vector?$DMT?$DO?5too?5long?$AA@
	b            ?_Xlength_error@std@@YAXPBD@Z
; End code for function: ?_Xlen@?$vector@KV?$allocator@K@std@@@std@@IBAXXZ
?_Xlen@?$vector@KV?$allocator@K@std@@@std@@IBAXXZ ENDP
							; std::vector<unsigned long,std::allocator<unsigned long> >::_Xlen
PUBLIC	??0?$allocator@K@std@@QAA@ABV01@@Z		; std::allocator<unsigned long>::allocator<unsigned long>
; Function compile flags: /Ogsu

	.code

??0?$allocator@K@std@@QAA@ABV01@@Z PROC NEAR		; std::allocator<unsigned long>::allocator<unsigned long>, COMDAT

; Begin code for function: ??0?$allocator@K@std@@QAA@ABV01@@Z
; File d:\program files (x86)\microsoft xbox 360 sdk\include\xbox\xmemory
; Line 167
	blr
; End code for function: ??0?$allocator@K@std@@QAA@ABV01@@Z
??0?$allocator@K@std@@QAA@ABV01@@Z ENDP
							; std::allocator<unsigned long>::allocator<unsigned long>
PUBLIC	?deallocate@?$allocator@K@std@@QAAXPAKI@Z	; std::allocator<unsigned long>::deallocate
; Function compile flags: /Ogsu

	.code

?deallocate@?$allocator@K@std@@QAAXPAKI@Z PROC NEAR	; std::allocator<unsigned long>::deallocate, COMDAT

; Begin code for function: ?deallocate@?$allocator@K@std@@QAAXPAKI@Z
; Line 182
	mr           r3,r4
	b            ??3@YAXPAX@Z
; End code for function: ?deallocate@?$allocator@K@std@@QAAXPAKI@Z
?deallocate@?$allocator@K@std@@QAAXPAKI@Z ENDP
							; std::allocator<unsigned long>::deallocate
PUBLIC	??0?$_Vector_const_iterator@V?$_Vector_val@KV?$allocator@K@std@@@std@@@std@@QAA@PAKPBU_Container_base0@1@@Z ; std::_Vector_const_iterator<std::_Vector_val<unsigned long,std::allocator<unsigned long> > >::_Vector_const_iterator<std::_Vector_val<unsigned long,std::allocator<unsigned long> > >
; Function compile flags: /Ogsu

	.code

??0?$_Vector_const_iterator@V?$_Vector_val@KV?$allocator@K@std@@@std@@@std@@QAA@PAKPBU_Container_base0@1@@Z PROC NEAR ; std::_Vector_const_iterator<std::_Vector_val<unsigned long,std::allocator<unsigned long> > >::_Vector_const_iterator<std::_Vector_val<unsigned long,std::allocator<unsigned long> > >, COMDAT

; Begin code for function: ??0?$_Vector_const_iterator@V?$_Vector_val@KV?$allocator@K@std@@@std@@@std@@QAA@PAKPBU_Container_base0@1@@Z
; File d:\program files (x86)\microsoft xbox 360 sdk\include\xbox\vector
; Line 45
	stw          r4,0(r3)
; Line 47
	blr
; End code for function: ??0?$_Vector_const_iterator@V?$_Vector_val@KV?$allocator@K@std@@@std@@@std@@QAA@PAKPBU_Container_base0@1@@Z
??0?$_Vector_const_iterator@V?$_Vector_val@KV?$allocator@K@std@@@std@@@std@@QAA@PAKPBU_Container_base0@1@@Z ENDP
							; std::_Vector_const_iterator<std::_Vector_val<unsigned long,std::allocator<unsigned long> > >::_Vector_const_iterator<std::_Vector_val<unsigned long,std::allocator<unsigned long> > >
PUBLIC	??Y?$_Vector_const_iterator@V?$_Vector_val@KV?$allocator@K@std@@@std@@@std@@QAAAAV01@H@Z ; std::_Vector_const_iterator<std::_Vector_val<unsigned long,std::allocator<unsigned long> > >::operator+=
; Function compile flags: /Ogsu

	.code

??Y?$_Vector_const_iterator@V?$_Vector_val@KV?$allocator@K@std@@@std@@@std@@QAAAAV01@H@Z PROC NEAR ; std::_Vector_const_iterator<std::_Vector_val<unsigned long,std::allocator<unsigned long> > >::operator+=, COMDAT

; Begin code for function: ??Y?$_Vector_const_iterator@V?$_Vector_val@KV?$allocator@K@std@@@std@@@std@@QAAAAV01@H@Z
; Line 168
	lwz          r11,0(r3)
	slwi         r10,r4,2
	add          r11,r10,r11
	stw          r11,0(r3)
; Line 170
	blr
; End code for function: ??Y?$_Vector_const_iterator@V?$_Vector_val@KV?$allocator@K@std@@@std@@@std@@QAAAAV01@H@Z
??Y?$_Vector_const_iterator@V?$_Vector_val@KV?$allocator@K@std@@@std@@@std@@QAAAAV01@H@Z ENDP
							; std::_Vector_const_iterator<std::_Vector_val<unsigned long,std::allocator<unsigned long> > >::operator+=
PUBLIC	?max_size@?$allocator@K@std@@QBAIXZ		; std::allocator<unsigned long>::max_size
; Function compile flags: /Ogsu

	.code

?max_size@?$allocator@K@std@@QBAIXZ PROC NEAR		; std::allocator<unsigned long>::max_size, COMDAT

; Begin code for function: ?max_size@?$allocator@K@std@@QBAIXZ
; File d:\program files (x86)\microsoft xbox 360 sdk\include\xbox\xmemory
; Line 219
	lis          r3,16383		; 3FFFh
	ori          r3,r3,65535		; 0FFFFh
; Line 220
	blr
; End code for function: ?max_size@?$allocator@K@std@@QBAIXZ
?max_size@?$allocator@K@std@@QBAIXZ ENDP
							; std::allocator<unsigned long>::max_size
PUBLIC	??$addressof@$$CBK@std@@YAPBKABK@Z		; std::addressof<unsigned long const >
; Function compile flags: /Ogsu

	.code

??$addressof@$$CBK@std@@YAPBKABK@Z PROC NEAR		; std::addressof<unsigned long const >, COMDAT

; Begin code for function: ??$addressof@$$CBK@std@@YAPBKABK@Z
; Line 112
	blr
; End code for function: ??$addressof@$$CBK@std@@YAPBKABK@Z
??$addressof@$$CBK@std@@YAPBKABK@Z ENDP
							; std::addressof<unsigned long const >
PUBLIC	??$_Allocate@K@std@@YAPAKIPAK@Z			; std::_Allocate<unsigned long>
EXTRN	??2@YAPAXI@Z:PROC				; operator new
;	COMDAT .pdata
; File d:\program files (x86)\microsoft xbox 360 sdk\include\xbox\exception
.pdata	SEGMENT
$T90086	DD	??$_Allocate@K@std@@YAPAKIPAK@Z
	DD	040001a03H
; Function compile flags: /Ogsu

	.code
$T87186 = 80						; size = 8

??$_Allocate@K@std@@YAPAKIPAK@Z	PROC NEAR		; std::_Allocate<unsigned long>, COMDAT

; Begin code for function: ??$_Allocate@K@std@@YAPAKIPAK@Z
; File d:\program files (x86)\microsoft xbox 360 sdk\include\xbox\xmemory
; Line 30
	mflr         r12
	stw          r12,-8(r1)
	stwu         r1,-60h(r1)
.endprolog
$M90084:
	mr           r11,r3
; Line 31
	li           r3,0
; Line 33
	cmplwi       cr6,r11,0
; Line 35
	beq          cr6,$LN5@Allocate
; Line 37
	lis          r10,16383		; 3FFFh
	ori          r10,r10,65535		; 0FFFFh
	cmplw        cr6,r11,r10
	bgt          cr6,$LN1@Allocate
; Line 36
	slwi         r3,r11,2
	bl           ??2@YAPAXI@Z
	cmplwi       r3,0
; Line 39
	bne          $LN5@Allocate
$LN1@Allocate:
; Line 37
	lis          r11,??_7bad_alloc@stdext@@6B@
	li           r10,0
	addi         r11,r11,??_7bad_alloc@stdext@@6B@
	stw          r10,$T87186+4(r1)		; 84 (54h)
	addi         r3,r1,$T87186
	stw          r11,$T87186(r1)		; 80 (50h)
	bl           ?_Raise@exception@stdext@@QBAXXZ
$LN18@Allocate:
$LN5@Allocate:
; Line 40
	addi         r1,r1,96		; 60h
	lwz          r12,-8(r1)
	mtlr         r12
	blr
$LN15@Allocate:
$M90085:
; End code for function: ??$_Allocate@K@std@@YAPAKIPAK@Z
??$_Allocate@K@std@@YAPAKIPAK@Z ENDP
							; std::_Allocate<unsigned long>
PUBLIC	??$forward@AAK@std@@YAAAKAAK@Z			; std::forward<unsigned long &>
; Function compile flags: /Ogsu

	.code

??$forward@AAK@std@@YAAAKAAK@Z PROC NEAR			; std::forward<unsigned long &>, COMDAT

; Begin code for function: ??$forward@AAK@std@@YAAAKAAK@Z
; File d:\program files (x86)\microsoft xbox 360 sdk\include\xbox\utility
; Line 80
	blr
; End code for function: ??$forward@AAK@std@@YAAAKAAK@Z
??$forward@AAK@std@@YAAAKAAK@Z ENDP
							; std::forward<unsigned long &>
PUBLIC	??$construct@AAK@?$allocator@K@std@@QAAXPAKAAK@Z ; std::allocator<unsigned long>::construct<unsigned long &>
; Function compile flags: /Ogsu

	.code

??$construct@AAK@?$allocator@K@std@@QAAXPAKAAK@Z PROC NEAR ; std::allocator<unsigned long>::construct<unsigned long &>, COMDAT

; Begin code for function: ??$construct@AAK@?$allocator@K@std@@QAAXPAKAAK@Z
; File d:\program files (x86)\microsoft xbox 360 sdk\include\xbox\xmemory
; Line 208
	cmplwi       cr6,r4,0
	beqlr        cr6
	lwz          r11,0(r5)
	stw          r11,0(r4)
$LN3@construct:
; Line 209
	blr
; End code for function: ??$construct@AAK@?$allocator@K@std@@QAAXPAKAAK@Z
??$construct@AAK@?$allocator@K@std@@QAAXPAKAAK@Z ENDP
							; std::allocator<unsigned long>::construct<unsigned long &>
PUBLIC	??$forward@ABK@std@@YAABKABK@Z			; std::forward<unsigned long const &>
; Function compile flags: /Ogsu

	.code

??$forward@ABK@std@@YAABKABK@Z PROC NEAR			; std::forward<unsigned long const &>, COMDAT

; Begin code for function: ??$forward@ABK@std@@YAABKABK@Z
; File d:\program files (x86)\microsoft xbox 360 sdk\include\xbox\utility
; Line 80
	blr
; End code for function: ??$forward@ABK@std@@YAABKABK@Z
??$forward@ABK@std@@YAABKABK@Z ENDP
							; std::forward<unsigned long const &>
PUBLIC	??$_Ptr_cat@KK@std@@YA?AU_Scalar_ptr_iterator_tag@0@PAK0@Z ; std::_Ptr_cat<unsigned long,unsigned long>
; Function compile flags: /Ogsu

	.code
_Cat$ = -16						; size = 1

??$_Ptr_cat@KK@std@@YA?AU_Scalar_ptr_iterator_tag@0@PAK0@Z PROC NEAR ; std::_Ptr_cat<unsigned long,unsigned long>, COMDAT

; Begin code for function: ??$_Ptr_cat@KK@std@@YA?AU_Scalar_ptr_iterator_tag@0@PAK0@Z
; File d:\program files (x86)\microsoft xbox 360 sdk\include\xbox\xutility
; Line 518
	lbz          r3,_Cat$(r1)		; 4294967280 (0FFFFFFF0h)
; Line 519
	blr
; End code for function: ??$_Ptr_cat@KK@std@@YA?AU_Scalar_ptr_iterator_tag@0@PAK0@Z
??$_Ptr_cat@KK@std@@YA?AU_Scalar_ptr_iterator_tag@0@PAK0@Z ENDP
							; std::_Ptr_cat<unsigned long,unsigned long>
PUBLIC	??$_Move@PAKPAK@std@@YAPAKPAK00U_Scalar_ptr_iterator_tag@0@@Z ; std::_Move<unsigned long *,unsigned long *>
EXTRN	memmove:PROC
;	COMDAT .pdata
.pdata	SEGMENT
$T90110	DD	??$_Move@PAKPAK@std@@YAPAKPAK00U_Scalar_ptr_iterator_tag@0@@Z
	DD	040001405H
; Function compile flags: /Ogsu

	.code

??$_Move@PAKPAK@std@@YAPAKPAK00U_Scalar_ptr_iterator_tag@0@@Z PROC NEAR ; std::_Move<unsigned long *,unsigned long *>, COMDAT

; Begin code for function: ??$_Move@PAKPAK@std@@YAPAKPAK00U_Scalar_ptr_iterator_tag@0@@Z
; Line 2522
	mflr         r12
	stw          r12,-8(r1)
	std          r30,-18h(r1)
	std          r31,-10h(r1)
	stwu         r1,-70h(r1)
.endprolog
$M90108:
; Line 2523
	subf         r11,r3,r4
; Line 2525
	mr           r4,r3
	srawi        r11,r11,2
	mr           r31,r5
	slwi         r30,r11,2
	mr           r3,r5
	mr           r5,r30
	bl           memmove
; Line 2526
	add          r3,r30,r31
; Line 2527
	addi         r1,r1,112		; 70h
	lwz          r12,-8(r1)
	mtlr         r12
	ld           r30,-18h(r1)
	ld           r31,-10h(r1)
	blr
$M90109:
; End code for function: ??$_Move@PAKPAK@std@@YAPAKPAK00U_Scalar_ptr_iterator_tag@0@@Z
??$_Move@PAKPAK@std@@YAPAKPAK00U_Scalar_ptr_iterator_tag@0@@Z ENDP
							; std::_Move<unsigned long *,unsigned long *>
PUBLIC	??$_Destroy_range@V?$allocator@K@std@@@std@@YAXPAK0AAV?$allocator@K@0@U_Scalar_ptr_iterator_tag@0@@Z ; std::_Destroy_range<std::allocator<unsigned long> >
; Function compile flags: /Ogsu

	.code

??$_Destroy_range@V?$allocator@K@std@@@std@@YAXPAK0AAV?$allocator@K@0@U_Scalar_ptr_iterator_tag@0@@Z PROC NEAR ; std::_Destroy_range<std::allocator<unsigned long> >, COMDAT

; Begin code for function: ??$_Destroy_range@V?$allocator@K@std@@@std@@YAXPAK0AAV?$allocator@K@0@U_Scalar_ptr_iterator_tag@0@@Z
; File d:\program files (x86)\microsoft xbox 360 sdk\include\xbox\xmemory
; Line 105
	blr
; End code for function: ??$_Destroy_range@V?$allocator@K@std@@@std@@YAXPAK0AAV?$allocator@K@0@U_Scalar_ptr_iterator_tag@0@@Z
??$_Destroy_range@V?$allocator@K@std@@@std@@YAXPAK0AAV?$allocator@K@0@U_Scalar_ptr_iterator_tag@0@@Z ENDP
							; std::_Destroy_range<std::allocator<unsigned long> >
PUBLIC	??$_Construct@KABK@std@@YAXPAKABK@Z		; std::_Construct<unsigned long,unsigned long const &>
; Function compile flags: /Ogsu

	.code

??$_Construct@KABK@std@@YAXPAKABK@Z PROC NEAR		; std::_Construct<unsigned long,unsigned long const &>, COMDAT

; Begin code for function: ??$_Construct@KABK@std@@YAXPAKABK@Z
; Line 48
	cmplwi       cr6,r3,0
	beqlr        cr6
	lwz          r11,0(r4)
	stw          r11,0(r3)
$LN3@Construct:
; Line 49
	blr
; End code for function: ??$_Construct@KABK@std@@YAXPAKABK@Z
??$_Construct@KABK@std@@YAXPAKABK@Z ENDP
							; std::_Construct<unsigned long,unsigned long const &>
PUBLIC	??$_Val_type@PAK@std@@YAPAKPAK@Z		; std::_Val_type<unsigned long *>
; Function compile flags: /Ogsu

	.code

??$_Val_type@PAK@std@@YAPAKPAK@Z PROC NEAR		; std::_Val_type<unsigned long *>, COMDAT

; Begin code for function: ??$_Val_type@PAK@std@@YAPAKPAK@Z
; File d:\program files (x86)\microsoft xbox 360 sdk\include\xbox\xutility
; Line 790
	li           r3,0
; Line 791
	blr
; End code for function: ??$_Val_type@PAK@std@@YAPAKPAK@Z
??$_Val_type@PAK@std@@YAPAKPAK@Z ENDP
							; std::_Val_type<unsigned long *>
PUBLIC	??$_Uninit_move@KKK@std@@YAPAKPAK00AAV?$allocator@K@0@0U_Scalar_ptr_iterator_tag@0@@Z ; std::_Uninit_move<unsigned long,unsigned long,unsigned long>
;	COMDAT .pdata
; File d:\program files (x86)\microsoft xbox 360 sdk\include\xbox\memory
.pdata	SEGMENT
$T90131	DD	??$_Uninit_move@KKK@std@@YAPAKPAK00AAV?$allocator@K@0@0U_Scalar_ptr_iterator_tag@0@@Z
	DD	040001204H
; Function compile flags: /Ogsu

	.code

??$_Uninit_move@KKK@std@@YAPAKPAK00AAV?$allocator@K@0@0U_Scalar_ptr_iterator_tag@0@@Z PROC NEAR ; std::_Uninit_move<unsigned long,unsigned long,unsigned long>, COMDAT

; Begin code for function: ??$_Uninit_move@KKK@std@@YAPAKPAK00AAV?$allocator@K@0@0U_Scalar_ptr_iterator_tag@0@@Z
; Line 456
	mflr         r12
	stw          r12,-8(r1)
	std          r31,-10h(r1)
	stwu         r1,-60h(r1)
.endprolog
$M90129:
; Line 459
	subf         r11,r3,r4
	mr           r10,r3
; Line 461
	srawi        r11,r11,2
	mr           r3,r5
	slwi         r31,r11,2
	mr           r4,r10
	mr           r5,r31
	bl           memmove
	add          r3,r3,r31
; Line 462
	addi         r1,r1,96		; 60h
	lwz          r12,-8(r1)
	mtlr         r12
	ld           r31,-10h(r1)
	blr
$M90130:
; End code for function: ??$_Uninit_move@KKK@std@@YAPAKPAK00AAV?$allocator@K@0@0U_Scalar_ptr_iterator_tag@0@@Z
??$_Uninit_move@KKK@std@@YAPAKPAK00AAV?$allocator@K@0@0U_Scalar_ptr_iterator_tag@0@@Z ENDP
							; std::_Uninit_move<unsigned long,unsigned long,unsigned long>
PUBLIC	??_C@_0O@NOPEHFNP@crc32?3?50x?$CFx?$AN?6?$AA@	; `string'
PUBLIC	?Log@Logging@@QAAXAAV?$vector@KV?$allocator@K@std@@@std@@@Z ; Logging::Log
EXTRN	DbgPrint:PROC
;	COMDAT .pdata
; File d:\program files (x86)\microsoft xbox 360 sdk\include\xbox\vector
.pdata	SEGMENT
$T90145	DD	?Log@Logging@@QAAXAAV?$vector@KV?$allocator@K@std@@@std@@@Z
	DD	040001a03H
;	COMDAT ??_C@_0O@NOPEHFNP@crc32?3?50x?$CFx?$AN?6?$AA@
.rdata	SEGMENT
??_C@_0O@NOPEHFNP@crc32?3?50x?$CFx?$AN?6?$AA@ DB 'crc32: 0x%x', 0dH, 0aH, 00H ; `string'
; Function compile flags: /Ogsu

	.code

?Log@Logging@@QAAXAAV?$vector@KV?$allocator@K@std@@@std@@@Z PROC NEAR ; Logging::Log, COMDAT

; Begin code for function: ?Log@Logging@@QAAXAAV?$vector@KV?$allocator@K@std@@@std@@@Z
; File c:\users\permanulled\desktop\trainer_engine\trainer engine\trainer\logging.h
; Line 42
	mflr         r12
	bl           __savegprlr_28
	stwu         r1,-80h(r1)
.endprolog
$M90143:
; Line 43
	lwz          r11,0(r4)
	mr           r31,r4
	lwz          r10,4(r4)
	li           r30,0
	subf         r10,r11,r10
	srawi.       r10,r10,2
	beq          $LN1@Log
	lis          r10,??_C@_0O@NOPEHFNP@crc32?3?50x?$CFx?$AN?6?$AA@
	li           r29,0
	addi         r28,r10,??_C@_0O@NOPEHFNP@crc32?3?50x?$CFx?$AN?6?$AA@
$LL3@Log:						; Start of loop
; Line 45
	mr           r3,r28
	lwzx         r4,r29,r11
	bl           DbgPrint
	lwz          r11,0(r31)
	lwz          r10,4(r31)
	addi         r30,r30,1
	addi         r29,r29,4
	subf         r10,r11,r10
	srawi        r10,r10,2
	cmplw        cr6,r30,r10
	blt          cr6,$LL3@Log
$LN1@Log:
; Line 49
	addi         r1,r1,128		; 80h
	b            __restgprlr_28
$M90144:
; End code for function: ?Log@Logging@@QAAXAAV?$vector@KV?$allocator@K@std@@@std@@@Z
?Log@Logging@@QAAXAAV?$vector@KV?$allocator@K@std@@@std@@@Z ENDP
							; Logging::Log
PUBLIC	??0?$_Vector_val@KV?$allocator@K@std@@@std@@QAA@V?$allocator@K@1@@Z ; std::_Vector_val<unsigned long,std::allocator<unsigned long> >::_Vector_val<unsigned long,std::allocator<unsigned long> >
; Function compile flags: /Ogsu

	.code

??0?$_Vector_val@KV?$allocator@K@std@@@std@@QAA@V?$allocator@K@1@@Z PROC NEAR ; std::_Vector_val<unsigned long,std::allocator<unsigned long> >::_Vector_val<unsigned long,std::allocator<unsigned long> >, COMDAT

; Begin code for function: ??0?$_Vector_val@KV?$allocator@K@std@@@std@@QAA@V?$allocator@K@1@@Z
; File d:\program files (x86)\microsoft xbox 360 sdk\include\xbox\vector
; Line 427
	li           r11,0
; Line 429
	stw          r11,0(r3)
	stw          r11,4(r3)
	stw          r11,8(r3)
; Line 430
	blr
; End code for function: ??0?$_Vector_val@KV?$allocator@K@std@@@std@@QAA@V?$allocator@K@1@@Z
??0?$_Vector_val@KV?$allocator@K@std@@@std@@QAA@V?$allocator@K@1@@Z ENDP
							; std::_Vector_val<unsigned long,std::allocator<unsigned long> >::_Vector_val<unsigned long,std::allocator<unsigned long> >
PUBLIC	??0?$_Vector_iterator@V?$_Vector_val@KV?$allocator@K@std@@@std@@@std@@QAA@PAKPBU_Container_base0@1@@Z ; std::_Vector_iterator<std::_Vector_val<unsigned long,std::allocator<unsigned long> > >::_Vector_iterator<std::_Vector_val<unsigned long,std::allocator<unsigned long> > >
; Function compile flags: /Ogsu

	.code

??0?$_Vector_iterator@V?$_Vector_val@KV?$allocator@K@std@@@std@@@std@@QAA@PAKPBU_Container_base0@1@@Z PROC NEAR ; std::_Vector_iterator<std::_Vector_val<unsigned long,std::allocator<unsigned long> > >::_Vector_iterator<std::_Vector_val<unsigned long,std::allocator<unsigned long> > >, COMDAT

; Begin code for function: ??0?$_Vector_iterator@V?$_Vector_val@KV?$allocator@K@std@@@std@@@std@@QAA@PAKPBU_Container_base0@1@@Z
; Line 304
	stw          r4,0(r3)
; Line 305
	blr
; End code for function: ??0?$_Vector_iterator@V?$_Vector_val@KV?$allocator@K@std@@@std@@@std@@QAA@PAKPBU_Container_base0@1@@Z
??0?$_Vector_iterator@V?$_Vector_val@KV?$allocator@K@std@@@std@@@std@@QAA@PAKPBU_Container_base0@1@@Z ENDP
							; std::_Vector_iterator<std::_Vector_val<unsigned long,std::allocator<unsigned long> > >::_Vector_iterator<std::_Vector_val<unsigned long,std::allocator<unsigned long> > >
PUBLIC	??Y?$_Vector_iterator@V?$_Vector_val@KV?$allocator@K@std@@@std@@@std@@QAAAAV01@H@Z ; std::_Vector_iterator<std::_Vector_val<unsigned long,std::allocator<unsigned long> > >::operator+=
; Function compile flags: /Ogsu

	.code

??Y?$_Vector_iterator@V?$_Vector_val@KV?$allocator@K@std@@@std@@@std@@QAAAAV01@H@Z PROC NEAR ; std::_Vector_iterator<std::_Vector_val<unsigned long,std::allocator<unsigned long> > >::operator+=, COMDAT

; Begin code for function: ??Y?$_Vector_iterator@V?$_Vector_val@KV?$allocator@K@std@@@std@@@std@@QAAAAV01@H@Z
; Line 358
	lwz          r11,0(r3)
	slwi         r10,r4,2
	add          r11,r10,r11
	stw          r11,0(r3)
; Line 360
	blr
; End code for function: ??Y?$_Vector_iterator@V?$_Vector_val@KV?$allocator@K@std@@@std@@@std@@QAAAAV01@H@Z
??Y?$_Vector_iterator@V?$_Vector_val@KV?$allocator@K@std@@@std@@@std@@QAAAAV01@H@Z ENDP
							; std::_Vector_iterator<std::_Vector_val<unsigned long,std::allocator<unsigned long> > >::operator+=
PUBLIC	?max_size@?$vector@KV?$allocator@K@std@@@std@@QBAIXZ ; std::vector<unsigned long,std::allocator<unsigned long> >::max_size
; Function compile flags: /Ogsu

	.code

?max_size@?$vector@KV?$allocator@K@std@@@std@@QBAIXZ PROC NEAR ; std::vector<unsigned long,std::allocator<unsigned long> >::max_size, COMDAT

; Begin code for function: ?max_size@?$vector@KV?$allocator@K@std@@@std@@QBAIXZ
; Line 884
	lis          r3,16383		; 3FFFh
	ori          r3,r3,65535		; 0FFFFh
; Line 885
	blr
; End code for function: ?max_size@?$vector@KV?$allocator@K@std@@@std@@QBAIXZ
?max_size@?$vector@KV?$allocator@K@std@@@std@@QBAIXZ ENDP
							; std::vector<unsigned long,std::allocator<unsigned long> >::max_size
PUBLIC	?_Grow_to@?$vector@KV?$allocator@K@std@@@std@@IBAII@Z ; std::vector<unsigned long,std::allocator<unsigned long> >::_Grow_to
; Function compile flags: /Ogsu

	.code

?_Grow_to@?$vector@KV?$allocator@K@std@@@std@@IBAII@Z PROC NEAR ; std::vector<unsigned long,std::allocator<unsigned long> >::_Grow_to, COMDAT

; Begin code for function: ?_Grow_to@?$vector@KV?$allocator@K@std@@@std@@IBAII@Z
; Line 1280
	lwz          r9,0(r3)
	lis          r10,16383		; 3FFFh
	lwz          r11,8(r3)
	li           r3,0
	ori          r8,r10,65535		; 0FFFFh
	subf         r11,r9,r11
	srawi        r11,r11,2
	srwi         r10,r11,1
	subf         r9,r10,r8
	cmplw        cr6,r9,r11
	blt          cr6,$LN5@Grow_to
; Line 1278
	add          r3,r10,r11
$LN5@Grow_to:
; Line 1279
	cmplw        cr6,r3,r4
	bgelr        cr6
; Line 1280
	mr           r3,r4
$LN1@Grow_to:
; Line 1282
	blr
; End code for function: ?_Grow_to@?$vector@KV?$allocator@K@std@@@std@@IBAII@Z
?_Grow_to@?$vector@KV?$allocator@K@std@@@std@@IBAII@Z ENDP
							; std::vector<unsigned long,std::allocator<unsigned long> >::_Grow_to
PUBLIC	?allocate@?$allocator@K@std@@QAAPAKI@Z		; std::allocator<unsigned long>::allocate
; Function compile flags: /Ogsu

	.code

?allocate@?$allocator@K@std@@QAAPAKI@Z PROC NEAR		; std::allocator<unsigned long>::allocate, COMDAT

; Begin code for function: ?allocate@?$allocator@K@std@@QAAPAKI@Z
; File d:\program files (x86)\microsoft xbox 360 sdk\include\xbox\xmemory
; Line 186
	mr           r3,r4
; Line 187
	li           r4,0
	b            ??$_Allocate@K@std@@YAPAKIPAK@Z
; End code for function: ?allocate@?$allocator@K@std@@QAAPAKI@Z
?allocate@?$allocator@K@std@@QAAPAKI@Z ENDP
							; std::allocator<unsigned long>::allocate
PUBLIC	??$_Cons_val@V?$allocator@K@std@@KAAK@std@@YAXAAV?$allocator@K@0@PAKAAK@Z ; std::_Cons_val<std::allocator<unsigned long>,unsigned long,unsigned long &>
; Function compile flags: /Ogsu

	.code

??$_Cons_val@V?$allocator@K@std@@KAAK@std@@YAXAAV?$allocator@K@0@PAKAAK@Z PROC NEAR ; std::_Cons_val<std::allocator<unsigned long>,unsigned long,unsigned long &>, COMDAT

; Begin code for function: ??$_Cons_val@V?$allocator@K@std@@KAAK@std@@YAXAAV?$allocator@K@0@PAKAAK@Z
; Line 280
	cmplwi       cr6,r4,0
	beqlr        cr6
	lwz          r11,0(r5)
	stw          r11,0(r4)
$LN7@Cons_val:
; Line 281
	blr
; End code for function: ??$_Cons_val@V?$allocator@K@std@@KAAK@std@@YAXAAV?$allocator@K@0@PAKAAK@Z
??$_Cons_val@V?$allocator@K@std@@KAAK@std@@YAXAAV?$allocator@K@0@PAKAAK@Z ENDP
							; std::_Cons_val<std::allocator<unsigned long>,unsigned long,unsigned long &>
PUBLIC	??$_Move@PAKPAK@std@@YAPAKPAK00@Z		; std::_Move<unsigned long *,unsigned long *>
;	COMDAT .pdata
; File d:\program files (x86)\microsoft xbox 360 sdk\include\xbox\xutility
.pdata	SEGMENT
$T90239	DD	??$_Move@PAKPAK@std@@YAPAKPAK00@Z
	DD	040001405H
; Function compile flags: /Ogsu

	.code

??$_Move@PAKPAK@std@@YAPAKPAK00@Z PROC NEAR		; std::_Move<unsigned long *,unsigned long *>, COMDAT

; Begin code for function: ??$_Move@PAKPAK@std@@YAPAKPAK00@Z
; Line 2533
	mflr         r12
	stw          r12,-8(r1)
	std          r30,-18h(r1)
	std          r31,-10h(r1)
	stwu         r1,-70h(r1)
.endprolog
$M90237:
; Line 2535
	subf         r11,r3,r4
	mr           r4,r3
	srawi        r11,r11,2
	mr           r31,r5
	slwi         r30,r11,2
	mr           r3,r5
	mr           r5,r30
	bl           memmove
	add          r3,r30,r31
; Line 2536
	addi         r1,r1,112		; 70h
	lwz          r12,-8(r1)
	mtlr         r12
	ld           r30,-18h(r1)
	ld           r31,-10h(r1)
	blr
$M90238:
; End code for function: ??$_Move@PAKPAK@std@@YAPAKPAK00@Z
??$_Move@PAKPAK@std@@YAPAKPAK00@Z ENDP
							; std::_Move<unsigned long *,unsigned long *>
PUBLIC	??$_Destroy_range@V?$allocator@K@std@@@std@@YAXPAK0AAV?$allocator@K@0@@Z ; std::_Destroy_range<std::allocator<unsigned long> >
; Function compile flags: /Ogsu

	.code

??$_Destroy_range@V?$allocator@K@std@@@std@@YAXPAK0AAV?$allocator@K@0@@Z PROC NEAR ; std::_Destroy_range<std::allocator<unsigned long> >, COMDAT

; Begin code for function: ??$_Destroy_range@V?$allocator@K@std@@@std@@YAXPAK0AAV?$allocator@K@0@@Z
; File d:\program files (x86)\microsoft xbox 360 sdk\include\xbox\xmemory
; Line 89
	blr
; End code for function: ??$_Destroy_range@V?$allocator@K@std@@@std@@YAXPAK0AAV?$allocator@K@0@@Z
??$_Destroy_range@V?$allocator@K@std@@@std@@YAXPAK0AAV?$allocator@K@0@@Z ENDP
							; std::_Destroy_range<std::allocator<unsigned long> >
PUBLIC	?construct@?$allocator@K@std@@QAAXPAKABK@Z	; std::allocator<unsigned long>::construct
; Function compile flags: /Ogsu

	.code

?construct@?$allocator@K@std@@QAAXPAKABK@Z PROC NEAR	; std::allocator<unsigned long>::construct, COMDAT

; Begin code for function: ?construct@?$allocator@K@std@@QAAXPAKABK@Z
; Line 197
	cmplwi       cr6,r4,0
	beqlr        cr6
	lwz          r11,0(r5)
	stw          r11,0(r4)
$LN5@construct@2:
; Line 198
	blr
; End code for function: ?construct@?$allocator@K@std@@QAAXPAKABK@Z
?construct@?$allocator@K@std@@QAAXPAKABK@Z ENDP
							; std::allocator<unsigned long>::construct
PUBLIC	??$_Uninitialized_move@PAKPAKV?$allocator@K@std@@@std@@YAPAKPAK00AAV?$allocator@K@0@@Z ; std::_Uninitialized_move<unsigned long *,unsigned long *,std::allocator<unsigned long> >
;	COMDAT .pdata
; File d:\program files (x86)\microsoft xbox 360 sdk\include\xbox\memory
.pdata	SEGMENT
$T90289	DD	??$_Uninitialized_move@PAKPAKV?$allocator@K@std@@@std@@YAPAKPAK00AAV?$allocator@K@0@@Z
	DD	040001204H
; Function compile flags: /Ogsu

	.code

??$_Uninitialized_move@PAKPAKV?$allocator@K@std@@@std@@YAPAKPAK00AAV?$allocator@K@0@@Z PROC NEAR ; std::_Uninitialized_move<unsigned long *,unsigned long *,std::allocator<unsigned long> >, COMDAT

; Begin code for function: ??$_Uninitialized_move@PAKPAKV?$allocator@K@std@@@std@@YAPAKPAK00AAV?$allocator@K@0@@Z
; Line 469
	mflr         r12
	stw          r12,-8(r1)
	std          r31,-10h(r1)
	stwu         r1,-60h(r1)
.endprolog
$M90287:
; Line 471
	subf         r11,r3,r4
	mr           r10,r3
	srawi        r11,r11,2
	mr           r3,r5
	slwi         r31,r11,2
	mr           r4,r10
	mr           r5,r31
	bl           memmove
	add          r3,r3,r31
; Line 472
	addi         r1,r1,96		; 60h
	lwz          r12,-8(r1)
	mtlr         r12
	ld           r31,-10h(r1)
	blr
$M90288:
; End code for function: ??$_Uninitialized_move@PAKPAKV?$allocator@K@std@@@std@@YAPAKPAK00AAV?$allocator@K@0@@Z
??$_Uninitialized_move@PAKPAKV?$allocator@K@std@@@std@@YAPAKPAK00AAV?$allocator@K@0@@Z ENDP
							; std::_Uninitialized_move<unsigned long *,unsigned long *,std::allocator<unsigned long> >
PUBLIC	??0?$vector@KV?$allocator@K@std@@@std@@QAA@XZ	; std::vector<unsigned long,std::allocator<unsigned long> >::vector<unsigned long,std::allocator<unsigned long> >
; Function compile flags: /Ogsu

	.code

??0?$vector@KV?$allocator@K@std@@@std@@QAA@XZ PROC NEAR	; std::vector<unsigned long,std::allocator<unsigned long> >::vector<unsigned long,std::allocator<unsigned long> >, COMDAT

; Begin code for function: ??0?$vector@KV?$allocator@K@std@@@std@@QAA@XZ
; File d:\program files (x86)\microsoft xbox 360 sdk\include\xbox\vector
; Line 507
	li           r11,0
	stw          r11,0(r3)
	stw          r11,4(r3)
	stw          r11,8(r3)
; Line 508
	blr
; End code for function: ??0?$vector@KV?$allocator@K@std@@@std@@QAA@XZ
??0?$vector@KV?$allocator@K@std@@@std@@QAA@XZ ENDP
							; std::vector<unsigned long,std::allocator<unsigned long> >::vector<unsigned long,std::allocator<unsigned long> >
PUBLIC	?begin@?$vector@KV?$allocator@K@std@@@std@@QAA?AV?$_Vector_iterator@V?$_Vector_val@KV?$allocator@K@std@@@std@@@2@XZ ; std::vector<unsigned long,std::allocator<unsigned long> >::begin
; Function compile flags: /Ogsu

	.code

?begin@?$vector@KV?$allocator@K@std@@@std@@QAA?AV?$_Vector_iterator@V?$_Vector_val@KV?$allocator@K@std@@@std@@@2@XZ PROC NEAR ; std::vector<unsigned long,std::allocator<unsigned long> >::begin, COMDAT

; Begin code for function: ?begin@?$vector@KV?$allocator@K@std@@@std@@QAA?AV?$_Vector_iterator@V?$_Vector_val@KV?$allocator@K@std@@@std@@@2@XZ
; Line 782
	lwz          r11,0(r4)
	stw          r11,0(r3)
; Line 783
	blr
; End code for function: ?begin@?$vector@KV?$allocator@K@std@@@std@@QAA?AV?$_Vector_iterator@V?$_Vector_val@KV?$allocator@K@std@@@std@@@2@XZ
?begin@?$vector@KV?$allocator@K@std@@@std@@QAA?AV?$_Vector_iterator@V?$_Vector_val@KV?$allocator@K@std@@@std@@@2@XZ ENDP
							; std::vector<unsigned long,std::allocator<unsigned long> >::begin
PUBLIC	??H?$_Vector_iterator@V?$_Vector_val@KV?$allocator@K@std@@@std@@@std@@QBA?AV01@H@Z ; std::_Vector_iterator<std::_Vector_val<unsigned long,std::allocator<unsigned long> > >::operator+
; Function compile flags: /Ogsu

	.code

??H?$_Vector_iterator@V?$_Vector_val@KV?$allocator@K@std@@@std@@@std@@QBA?AV01@H@Z PROC NEAR ; std::_Vector_iterator<std::_Vector_val<unsigned long,std::allocator<unsigned long> > >::operator+, COMDAT

; Begin code for function: ??H?$_Vector_iterator@V?$_Vector_val@KV?$allocator@K@std@@@std@@@std@@QBA?AV01@H@Z
; Line 365
	lwz          r11,0(r4)
	slwi         r10,r5,2
	add          r11,r10,r11
	stw          r11,0(r3)
; Line 366
	blr
; End code for function: ??H?$_Vector_iterator@V?$_Vector_val@KV?$allocator@K@std@@@std@@@std@@QBA?AV01@H@Z
??H?$_Vector_iterator@V?$_Vector_val@KV?$allocator@K@std@@@std@@@std@@QBA?AV01@H@Z ENDP
							; std::_Vector_iterator<std::_Vector_val<unsigned long,std::allocator<unsigned long> > >::operator+
PUBLIC	?_Make_iter@?$vector@KV?$allocator@K@std@@@std@@QBA?AV?$_Vector_iterator@V?$_Vector_val@KV?$allocator@K@std@@@std@@@2@V?$_Vector_const_iterator@V?$_Vector_val@KV?$allocator@K@std@@@std@@@2@@Z ; std::vector<unsigned long,std::allocator<unsigned long> >::_Make_iter
; Function compile flags: /Ogsu

	.code

?_Make_iter@?$vector@KV?$allocator@K@std@@@std@@QBA?AV?$_Vector_iterator@V?$_Vector_val@KV?$allocator@K@std@@@std@@@2@V?$_Vector_const_iterator@V?$_Vector_val@KV?$allocator@K@std@@@std@@@2@@Z	PROC NEAR ; std::vector<unsigned long,std::allocator<unsigned long> >::_Make_iter, COMDAT

; Begin code for function: ?_Make_iter@?$vector@KV?$allocator@K@std@@@std@@QBA?AV?$_Vector_iterator@V?$_Vector_val@KV?$allocator@K@std@@@std@@@2@V?$_Vector_const_iterator@V?$_Vector_val@KV?$allocator@K@std@@@std@@@2@@Z
; Line 802
	stw          r5,0(r3)
; Line 803
	blr
; End code for function: ?_Make_iter@?$vector@KV?$allocator@K@std@@@std@@QBA?AV?$_Vector_iterator@V?$_Vector_val@KV?$allocator@K@std@@@std@@@2@V?$_Vector_const_iterator@V?$_Vector_val@KV?$allocator@K@std@@@std@@@2@@Z
?_Make_iter@?$vector@KV?$allocator@K@std@@@std@@QBA?AV?$_Vector_iterator@V?$_Vector_val@KV?$allocator@K@std@@@std@@@2@V?$_Vector_const_iterator@V?$_Vector_val@KV?$allocator@K@std@@@std@@@2@@Z ENDP
							; std::vector<unsigned long,std::allocator<unsigned long> >::_Make_iter
PUBLIC	?_Destroy@?$vector@KV?$allocator@K@std@@@std@@IAAXPAK0@Z ; std::vector<unsigned long,std::allocator<unsigned long> >::_Destroy
; Function compile flags: /Ogsu

	.code

?_Destroy@?$vector@KV?$allocator@K@std@@@std@@IAAXPAK0@Z PROC NEAR ; std::vector<unsigned long,std::allocator<unsigned long> >::_Destroy, COMDAT

; Begin code for function: ?_Destroy@?$vector@KV?$allocator@K@std@@@std@@IAAXPAK0@Z
; Line 1271
	blr
; End code for function: ?_Destroy@?$vector@KV?$allocator@K@std@@@std@@IAAXPAK0@Z
?_Destroy@?$vector@KV?$allocator@K@std@@@std@@IAAXPAK0@Z ENDP
							; std::vector<unsigned long,std::allocator<unsigned long> >::_Destroy
PUBLIC	?_Tidy@?$vector@KV?$allocator@K@std@@@std@@IAAXXZ ; std::vector<unsigned long,std::allocator<unsigned long> >::_Tidy
;	COMDAT .pdata
; File d:\program files (x86)\microsoft xbox 360 sdk\include\xbox\xmemory
.pdata	SEGMENT
$T90410	DD	?_Tidy@?$vector@KV?$allocator@K@std@@@std@@IAAXXZ
	DD	040001204H
; Function compile flags: /Ogsu

	.code

?_Tidy@?$vector@KV?$allocator@K@std@@@std@@IAAXXZ PROC NEAR ; std::vector<unsigned long,std::allocator<unsigned long> >::_Tidy, COMDAT

; Begin code for function: ?_Tidy@?$vector@KV?$allocator@K@std@@@std@@IAAXXZ
; File d:\program files (x86)\microsoft xbox 360 sdk\include\xbox\vector
; Line 1301
	mflr         r12
	stw          r12,-8(r1)
	std          r31,-10h(r1)
	stwu         r1,-60h(r1)
.endprolog
$M90408:
	mr           r31,r3
; Line 1302
	lwz          r3,0(r3)
	cmplwi       cr6,r3,0
	beq          cr6,$LN14@Tidy
; Line 1307
	bl           ??3@YAXPAX@Z
$LN14@Tidy:
; Line 1309
	li           r11,0
; Line 1311
	stw          r11,0(r31)
	stw          r11,4(r31)
	stw          r11,8(r31)
; Line 1312
	addi         r1,r1,96		; 60h
	lwz          r12,-8(r1)
	mtlr         r12
	ld           r31,-10h(r1)
	blr
$M90409:
; End code for function: ?_Tidy@?$vector@KV?$allocator@K@std@@@std@@IAAXXZ
?_Tidy@?$vector@KV?$allocator@K@std@@@std@@IAAXXZ ENDP
							; std::vector<unsigned long,std::allocator<unsigned long> >::_Tidy
PUBLIC	??$_Cons_val@V?$allocator@K@std@@KABK@std@@YAXAAV?$allocator@K@0@PAKABK@Z ; std::_Cons_val<std::allocator<unsigned long>,unsigned long,unsigned long const &>
; Function compile flags: /Ogsu

	.code

??$_Cons_val@V?$allocator@K@std@@KABK@std@@YAXAAV?$allocator@K@0@PAKABK@Z PROC NEAR ; std::_Cons_val<std::allocator<unsigned long>,unsigned long,unsigned long const &>, COMDAT

; Begin code for function: ??$_Cons_val@V?$allocator@K@std@@KABK@std@@YAXAAV?$allocator@K@0@PAKABK@Z
; File d:\program files (x86)\microsoft xbox 360 sdk\include\xbox\xmemory
; Line 280
	cmplwi       cr6,r4,0
	beqlr        cr6
	lwz          r11,0(r5)
	stw          r11,0(r4)
$LN9@Cons_val@2:
; Line 281
	blr
; End code for function: ??$_Cons_val@V?$allocator@K@std@@KABK@std@@YAXAAV?$allocator@K@0@PAKABK@Z
??$_Cons_val@V?$allocator@K@std@@KABK@std@@YAXAAV?$allocator@K@0@PAKABK@Z ENDP
							; std::_Cons_val<std::allocator<unsigned long>,unsigned long,unsigned long const &>
PUBLIC	??$_Umove@PAK@?$vector@KV?$allocator@K@std@@@std@@IAAPAKPAK00@Z ; std::vector<unsigned long,std::allocator<unsigned long> >::_Umove<unsigned long *>
;	COMDAT .pdata
; File d:\program files (x86)\microsoft xbox 360 sdk\include\xbox\memory
.pdata	SEGMENT
$T90478	DD	??$_Umove@PAK@?$vector@KV?$allocator@K@std@@@std@@IAAPAKPAK00@Z
	DD	040001004H
; Function compile flags: /Ogsu

	.code

??$_Umove@PAK@?$vector@KV?$allocator@K@std@@@std@@IAAPAKPAK00@Z	PROC NEAR ; std::vector<unsigned long,std::allocator<unsigned long> >::_Umove<unsigned long *>, COMDAT

; Begin code for function: ??$_Umove@PAK@?$vector@KV?$allocator@K@std@@@std@@IAAPAKPAK00@Z
; File d:\program files (x86)\microsoft xbox 360 sdk\include\xbox\vector
; Line 1322
	mflr         r12
	stw          r12,-8(r1)
	std          r31,-10h(r1)
	stwu         r1,-60h(r1)
.endprolog
$M90476:
; Line 1325
	subf         r11,r4,r5
	mr           r3,r6
	srawi        r11,r11,2
	slwi         r31,r11,2
	mr           r5,r31
	bl           memmove
	add          r3,r3,r31
; Line 1326
	addi         r1,r1,96		; 60h
	lwz          r12,-8(r1)
	mtlr         r12
	ld           r31,-10h(r1)
	blr
$M90477:
; End code for function: ??$_Umove@PAK@?$vector@KV?$allocator@K@std@@@std@@IAAPAKPAK00@Z
??$_Umove@PAK@?$vector@KV?$allocator@K@std@@@std@@IAAPAKPAK00@Z ENDP
							; std::vector<unsigned long,std::allocator<unsigned long> >::_Umove<unsigned long *>
PUBLIC	??1?$vector@KV?$allocator@K@std@@@std@@QAA@XZ	; std::vector<unsigned long,std::allocator<unsigned long> >::~vector<unsigned long,std::allocator<unsigned long> >
;	COMDAT .pdata
.pdata	SEGMENT
$T90541	DD	??1?$vector@KV?$allocator@K@std@@@std@@QAA@XZ
	DD	040001204H
; Function compile flags: /Ogsu

	.code

??1?$vector@KV?$allocator@K@std@@@std@@QAA@XZ PROC NEAR	; std::vector<unsigned long,std::allocator<unsigned long> >::~vector<unsigned long,std::allocator<unsigned long> >, COMDAT

; Begin code for function: ??1?$vector@KV?$allocator@K@std@@@std@@QAA@XZ
; Line 704
	mflr         r12
	stw          r12,-8(r1)
	std          r31,-10h(r1)
	stwu         r1,-60h(r1)
.endprolog
$M90539:
	mr           r31,r3
; Line 705
	lwz          r3,0(r3)
	cmplwi       cr6,r3,0
	beq          cr6,$LN16@vector@2
	bl           ??3@YAXPAX@Z
$LN16@vector@2:
	li           r11,0
	stw          r11,0(r31)
	stw          r11,4(r31)
	stw          r11,8(r31)
; Line 706
	addi         r1,r1,96		; 60h
	lwz          r12,-8(r1)
	mtlr         r12
	ld           r31,-10h(r1)
	blr
$M90540:
; End code for function: ??1?$vector@KV?$allocator@K@std@@@std@@QAA@XZ
??1?$vector@KV?$allocator@K@std@@@std@@QAA@XZ ENDP
							; std::vector<unsigned long,std::allocator<unsigned long> >::~vector<unsigned long,std::allocator<unsigned long> >
PUBLIC	?erase@?$vector@KV?$allocator@K@std@@@std@@QAA?AV?$_Vector_iterator@V?$_Vector_val@KV?$allocator@K@std@@@std@@@2@V?$_Vector_const_iterator@V?$_Vector_val@KV?$allocator@K@std@@@std@@@2@@Z ; std::vector<unsigned long,std::allocator<unsigned long> >::erase
;	COMDAT .pdata
; File d:\program files (x86)\microsoft xbox 360 sdk\include\xbox\xutility
.pdata	SEGMENT
$T90620	DD	?erase@?$vector@KV?$allocator@K@std@@@std@@QAA?AV?$_Vector_iterator@V?$_Vector_val@KV?$allocator@K@std@@@std@@@2@V?$_Vector_const_iterator@V?$_Vector_val@KV?$allocator@K@std@@@std@@@2@@Z
	DD	040001403H
; Function compile flags: /Ogsu

	.code

?erase@?$vector@KV?$allocator@K@std@@@std@@QAA?AV?$_Vector_iterator@V?$_Vector_val@KV?$allocator@K@std@@@std@@@2@V?$_Vector_const_iterator@V?$_Vector_val@KV?$allocator@K@std@@@std@@@2@@Z PROC NEAR ; std::vector<unsigned long,std::allocator<unsigned long> >::erase, COMDAT

; Begin code for function: ?erase@?$vector@KV?$allocator@K@std@@@std@@QAA?AV?$_Vector_iterator@V?$_Vector_val@KV?$allocator@K@std@@@std@@@2@V?$_Vector_const_iterator@V?$_Vector_val@KV?$allocator@K@std@@@std@@@2@@Z
; File d:\program files (x86)\microsoft xbox 360 sdk\include\xbox\vector
; Line 1179
	mflr         r12
	bl           __savegprlr_29
	stwu         r1,-70h(r1)
.endprolog
$M90618:
; Line 1181
	lwz          r11,4(r4)
	mr           r29,r4
	addi         r4,r5,4
	mr           r30,r3
	subf         r11,r4,r11
	mr           r31,r5
	srawi        r11,r11,2
	mr           r3,r5
	slwi         r5,r11,2
	bl           memmove
; Line 1184
	lwz          r11,4(r29)
	stw          r31,0(r30)
	mr           r3,r30
	addi         r11,r11,-4		; 0FFFCh
	stw          r11,4(r29)
; Line 1185
	addi         r1,r1,112		; 70h
	b            __restgprlr_29
$M90619:
; End code for function: ?erase@?$vector@KV?$allocator@K@std@@@std@@QAA?AV?$_Vector_iterator@V?$_Vector_val@KV?$allocator@K@std@@@std@@@2@V?$_Vector_const_iterator@V?$_Vector_val@KV?$allocator@K@std@@@std@@@2@@Z
?erase@?$vector@KV?$allocator@K@std@@@std@@QAA?AV?$_Vector_iterator@V?$_Vector_val@KV?$allocator@K@std@@@std@@@2@V?$_Vector_const_iterator@V?$_Vector_val@KV?$allocator@K@std@@@std@@@2@@Z ENDP
							; std::vector<unsigned long,std::allocator<unsigned long> >::erase
PUBLIC	?reserve@?$vector@KV?$allocator@K@std@@@std@@QAAXI@Z ; std::vector<unsigned long,std::allocator<unsigned long> >::reserve
;	COMDAT .pdata
; File d:\program files (x86)\microsoft xbox 360 sdk\include\xbox\xutility
.pdata	SEGMENT
$T90735	DD	?reserve@?$vector@KV?$allocator@K@std@@@std@@QAAXI@Z
	DD	040002c03H
; Function compile flags: /Ogsu

	.code

?reserve@?$vector@KV?$allocator@K@std@@@std@@QAAXI@Z PROC NEAR ; std::vector<unsigned long,std::allocator<unsigned long> >::reserve, COMDAT

; Begin code for function: ?reserve@?$vector@KV?$allocator@K@std@@@std@@QAAXI@Z
; File d:\program files (x86)\microsoft xbox 360 sdk\include\xbox\vector
; Line 746
	mflr         r12
	bl           __savegprlr_28
	stwu         r1,-80h(r1)
.endprolog
$M90733:
; Line 769
	lis          r11,16383		; 3FFFh
	mr           r31,r3
	ori          r11,r11,65535		; 0FFFFh
	mr           r29,r4
	cmplw        cr6,r4,r11
	ble          cr6,$LN5@reserve
; Line 748
	lis          r11,??_C@_0BD@OLBABOEK@vector?$DMT?$DO?5too?5long?$AA@
	addi         r3,r11,??_C@_0BD@OLBABOEK@vector?$DMT?$DO?5too?5long?$AA@
	bl           ?_Xlength_error@std@@YAXPBD@Z
$LN50@reserve:
$LN5@reserve:
; Line 749
	lwz          r11,0(r31)
	lwz          r10,8(r31)
	subf         r11,r11,r10
	srawi        r11,r11,2
	cmplw        cr6,r11,r29
	bge          cr6,$LN3@reserve
; Line 751
	li           r4,0
	mr           r3,r29
	bl           ??$_Allocate@K@std@@YAPAKIPAK@Z
; Line 754
	lwz          r4,0(r31)
	lwz          r11,4(r31)
	mr           r30,r3
	subf         r11,r4,r11
	srawi        r11,r11,2
	slwi         r5,r11,2
	bl           memmove
; Line 760
	lwz          r3,0(r31)
; Line 761
	lwz          r11,4(r31)
	cmplwi       cr6,r3,0
	subf         r11,r3,r11
	srawi        r28,r11,2
	beq          cr6,$LN43@reserve
; Line 765
	bl           ??3@YAXPAX@Z
$LN43@reserve:
; Line 769
	slwi         r11,r29,2
; Line 771
	stw          r30,0(r31)
	slwi         r10,r28,2
	add          r11,r11,r30
	add          r10,r10,r30
	stw          r11,8(r31)
	stw          r10,4(r31)
$LN3@reserve:
; Line 773
	addi         r1,r1,128		; 80h
	b            __restgprlr_28
$LN47@reserve:
$M90734:
; End code for function: ?reserve@?$vector@KV?$allocator@K@std@@@std@@QAAXI@Z
?reserve@?$vector@KV?$allocator@K@std@@@std@@QAAXI@Z ENDP
							; std::vector<unsigned long,std::allocator<unsigned long> >::reserve
PUBLIC	?Remove@Logging@@QAA_NAAV?$vector@KV?$allocator@K@std@@@std@@K@Z ; Logging::Remove
;	COMDAT .pdata
; File d:\program files (x86)\microsoft xbox 360 sdk\include\xbox\xutility
.pdata	SEGMENT
$T90902	DD	?Remove@Logging@@QAA_NAAV?$vector@KV?$allocator@K@std@@@std@@K@Z
	DD	040002b04H
; Function compile flags: /Ogsu

	.code

?Remove@Logging@@QAA_NAAV?$vector@KV?$allocator@K@std@@@std@@K@Z PROC NEAR ; Logging::Remove, COMDAT

; Begin code for function: ?Remove@Logging@@QAA_NAAV?$vector@KV?$allocator@K@std@@@std@@K@Z
; File c:\users\permanulled\desktop\trainer_engine\trainer engine\trainer\logging.h
; Line 26
	mflr         r12
	stw          r12,-8(r1)
	std          r31,-10h(r1)
	stwu         r1,-60h(r1)
.endprolog
$M90900:
; Line 27
	lwz          r11,0(r4)
	mr           r31,r4
	lwz          r9,4(r4)
	cmplw        cr6,r11,r9
	beq          cr6,$LN2@Remove
; Line 29
	subf         r8,r11,r9
	li           r10,0
	srawi.       r8,r8,2
	beq          $LN2@Remove
	li           r8,0
$LL4@Remove:						; Start of loop
; Line 31
	lwzx         r7,r8,r11
	cmplw        cr6,r5,r7
	beq          cr6,$LN53@Remove
; Line 29
	lwz          r7,4(r31)
	addi         r10,r10,1
	lwz          r6,0(r31)
	addi         r8,r8,4
	subf         r7,r6,r7
	srawi        r7,r7,2
	cmplw        cr6,r10,r7
	blt          cr6,$LL4@Remove
$LN2@Remove:
; Line 38
	li           r3,0
$LN6@Remove:
; Line 39
	addi         r1,r1,96		; 60h
	lwz          r12,-8(r1)
	mtlr         r12
	ld           r31,-10h(r1)
	blr
$LN53@Remove:
; Line 33
	slwi         r10,r10,2
	add          r3,r10,r11
	addi         r4,r3,4
	subf         r11,r4,r9
	srawi        r11,r11,2
	slwi         r5,r11,2
	bl           memmove
; Line 34
	lwz          r11,4(r31)
	li           r3,1
	addi         r11,r11,-4		; 0FFFCh
	stw          r11,4(r31)
	b            $LN6@Remove
$M90901:
; End code for function: ?Remove@Logging@@QAA_NAAV?$vector@KV?$allocator@K@std@@@std@@K@Z
?Remove@Logging@@QAA_NAAV?$vector@KV?$allocator@K@std@@@std@@K@Z ENDP
							; Logging::Remove
PUBLIC	??0Logging@@QAA@XZ				; Logging::Logging
; Function compile flags: /Ogsu

	.code

??0Logging@@QAA@XZ PROC NEAR				; Logging::Logging, COMDAT

; Begin code for function: ??0Logging@@QAA@XZ
	li           r11,0
	stw          r11,0(r3)
	stw          r11,4(r3)
	stw          r11,8(r3)
	blr
; End code for function: ??0Logging@@QAA@XZ
??0Logging@@QAA@XZ ENDP
							; Logging::Logging
PUBLIC	??1Logging@@QAA@XZ				; Logging::~Logging
;	COMDAT .pdata
.pdata	SEGMENT
$T91013	DD	??1Logging@@QAA@XZ
	DD	040001204H
; Function compile flags: /Ogsu

	.code

??1Logging@@QAA@XZ PROC NEAR				; Logging::~Logging, COMDAT

; Begin code for function: ??1Logging@@QAA@XZ
	mflr         r12
	stw          r12,-8(r1)
	std          r31,-10h(r1)
	stwu         r1,-60h(r1)
.endprolog
$M91011:
	mr           r31,r3
	lwz          r3,0(r3)
	cmplwi       cr6,r3,0
	beq          cr6,$LN18@Logging
	bl           ??3@YAXPAX@Z
$LN18@Logging:
	li           r11,0
	stw          r11,0(r31)
	stw          r11,4(r31)
	stw          r11,8(r31)
	addi         r1,r1,96		; 60h
	lwz          r12,-8(r1)
	mtlr         r12
	ld           r31,-10h(r1)
	blr
$M91012:
; End code for function: ??1Logging@@QAA@XZ
??1Logging@@QAA@XZ ENDP
							; Logging::~Logging
PUBLIC	?_Reserve@?$vector@KV?$allocator@K@std@@@std@@IAAXI@Z ; std::vector<unsigned long,std::allocator<unsigned long> >::_Reserve
; Function compile flags: /Ogsu

	.code

?_Reserve@?$vector@KV?$allocator@K@std@@@std@@IAAXI@Z PROC NEAR ; std::vector<unsigned long,std::allocator<unsigned long> >::_Reserve, COMDAT

; Begin code for function: ?_Reserve@?$vector@KV?$allocator@K@std@@@std@@IAAXI@Z
; File d:\program files (x86)\microsoft xbox 360 sdk\include\xbox\vector
; Line 1292
	lis          r10,16383		; 3FFFh
	lwz          r8,4(r3)
	lwz          r11,0(r3)
	ori          r9,r10,65535		; 0FFFFh
	subf         r10,r11,r8
	subf         r8,r4,r9
	srawi        r10,r10,2
	cmplw        cr6,r8,r10
	bge          cr6,$LN4@Reserve
; Line 1293
	lis          r11,??_C@_0BD@OLBABOEK@vector?$DMT?$DO?5too?5long?$AA@
	addi         r3,r11,??_C@_0BD@OLBABOEK@vector?$DMT?$DO?5too?5long?$AA@
	b            ?_Xlength_error@std@@YAXPBD@Z
$LN4@Reserve:
; Line 1294
	lwz          r7,8(r3)
	add          r8,r10,r4
	subf         r11,r11,r7
	srawi        r11,r11,2
	cmplw        cr6,r8,r11
	blelr        cr6
; Line 1297
	srwi         r10,r11,1
	li           r4,0
	subf         r9,r10,r9
	cmplw        cr6,r9,r11
	blt          cr6,$LN24@Reserve
	add          r4,r10,r11
$LN24@Reserve:
	cmplw        cr6,r4,r8
	bge          cr6,$LN20@Reserve
	mr           r4,r8
$LN20@Reserve:
	b            ?reserve@?$vector@KV?$allocator@K@std@@@std@@QAAXI@Z
$LN1@Reserve:
	blr
; End code for function: ?_Reserve@?$vector@KV?$allocator@K@std@@@std@@IAAXI@Z
?_Reserve@?$vector@KV?$allocator@K@std@@@std@@IAAXI@Z ENDP
							; std::vector<unsigned long,std::allocator<unsigned long> >::_Reserve
PUBLIC	?push_back@?$vector@KV?$allocator@K@std@@@std@@QAAXABK@Z ; std::vector<unsigned long,std::allocator<unsigned long> >::push_back
;	COMDAT .pdata
; File d:\program files (x86)\microsoft xbox 360 sdk\include\xbox\utility
.pdata	SEGMENT
$T91196	DD	?push_back@?$vector@KV?$allocator@K@std@@@std@@QAAXABK@Z
	DD	040003505H
; Function compile flags: /Ogsu

	.code

?push_back@?$vector@KV?$allocator@K@std@@@std@@QAAXABK@Z PROC NEAR ; std::vector<unsigned long,std::allocator<unsigned long> >::push_back, COMDAT

; Begin code for function: ?push_back@?$vector@KV?$allocator@K@std@@@std@@QAAXABK@Z
; File d:\program files (x86)\microsoft xbox 360 sdk\include\xbox\vector
; Line 976
	mflr         r12
	stw          r12,-8(r1)
	std          r30,-18h(r1)
	std          r31,-10h(r1)
	stwu         r1,-70h(r1)
.endprolog
$M91194:
; Line 977
	lwz          r11,4(r3)
	mr           r31,r3
	mr           r30,r4
	cmplw        cr6,r4,r11
	bge          cr6,$LN11@push_back
	lwz          r10,0(r3)
	cmplw        cr6,r10,r4
	li           r10,1
	ble          cr6,$LN12@push_back
$LN11@push_back:
	li           r10,0
$LN12@push_back:
	clrlwi.      r10,r10,24
	beq          $LN4@push_back
; Line 979
	lwz          r10,0(r31)
; Line 980
	lwz          r9,8(r31)
	subf         r10,r10,r30
	cmplw        cr6,r11,r9
	srawi        r30,r10,2
	bne          cr6,$LN3@push_back
; Line 981
	li           r4,1
	mr           r3,r31
	bl           ?_Reserve@?$vector@KV?$allocator@K@std@@@std@@IAAXI@Z
$LN3@push_back:
; Line 985
	lwz          r11,4(r31)
	cmplwi       cr6,r11,0
	beq          cr6,$LN39@push_back
	lwz          r10,0(r31)
	slwi         r9,r30,2
	lwzx         r10,r9,r10
; Line 988
	b            $LN45@push_back
$LN4@push_back:
; Line 990
	lwz          r10,8(r31)
	cmplw        cr6,r11,r10
	bne          cr6,$LN1@push_back
; Line 991
	li           r4,1
	mr           r3,r31
	bl           ?_Reserve@?$vector@KV?$allocator@K@std@@@std@@IAAXI@Z
$LN1@push_back:
; Line 995
	lwz          r11,4(r31)
	cmplwi       cr6,r11,0
	beq          cr6,$LN39@push_back
	lwz          r10,0(r30)
$LN45@push_back:
	stw          r10,0(r11)
$LN39@push_back:
; Line 996
	lwz          r11,4(r31)
	addi         r11,r11,4
	stw          r11,4(r31)
; Line 998
	addi         r1,r1,112		; 70h
	lwz          r12,-8(r1)
	mtlr         r12
	ld           r30,-18h(r1)
	ld           r31,-10h(r1)
	blr
$M91195:
; End code for function: ?push_back@?$vector@KV?$allocator@K@std@@@std@@QAAXABK@Z
?push_back@?$vector@KV?$allocator@K@std@@@std@@QAAXABK@Z ENDP
							; std::vector<unsigned long,std::allocator<unsigned long> >::push_back
PUBLIC	?Add@Logging@@QAA_NAAV?$vector@KV?$allocator@K@std@@@std@@K@Z ; Logging::Add
;	COMDAT .pdata
.pdata	SEGMENT
$T91211	DD	?Add@Logging@@QAA_NAAV?$vector@KV?$allocator@K@std@@@std@@K@Z
	DD	040001c03H
; Function compile flags: /Ogsu

	.code

?Add@Logging@@QAA_NAAV?$vector@KV?$allocator@K@std@@@std@@K@Z PROC NEAR ; Logging::Add, COMDAT

; Begin code for function: ?Add@Logging@@QAA_NAAV?$vector@KV?$allocator@K@std@@@std@@K@Z
; File c:\users\permanulled\desktop\trainer_engine\trainer engine\trainer\logging.h
; Line 16
	mflr         r12
	stw          r12,-8(r1)
	stwu         r1,-60h(r1)
.endprolog
$M91209:
; Line 17
	lwz          r9,0(r4)
	mr           r3,r4
	lwz          r11,4(r4)
	li           r10,0
	stw          r5,tex$(r1)		; 132 (84h)
	subf         r11,r9,r11
	srawi.       r8,r11,2
	beq          $LN2@Add
	li           r11,0
$LL4@Add:						; Start of loop
; Line 19
	lwzx         r7,r11,r9
	cmplw        cr6,r5,r7
	beq          cr6,$LN12@Add
; Line 17
	addi         r10,r10,1
	addi         r11,r11,4
	cmplw        cr6,r10,r8
	blt          cr6,$LL4@Add
$LN2@Add:
; Line 21
	addi         r4,r1,tex$
	bl           ?push_back@?$vector@KV?$allocator@K@std@@@std@@QAAXABK@Z
; Line 22
	li           r3,1
$LN5@Add:
; Line 23
	addi         r1,r1,96		; 60h
	lwz          r12,-8(r1)
	mtlr         r12
	blr
$LN12@Add:
; Line 19
	li           r3,0
	b            $LN5@Add
$M91210:
; End code for function: ?Add@Logging@@QAA_NAAV?$vector@KV?$allocator@K@std@@@std@@K@Z
?Add@Logging@@QAA_NAAV?$vector@KV?$allocator@K@std@@@std@@K@Z ENDP
							; Logging::Add
EXTRN	atexit:PROC
; Function compile flags: /Ogsu

	.code

??__EAllTextures@@YAXXZ	PROC NEAR			; `dynamic initializer for 'AllTextures'', COMDAT

; Begin code for function: ??__EAllTextures@@YAXXZ
; File c:\users\permanulled\desktop\trainer_engine\trainer engine\trainer\common.h
; Line 22
	lis          r11,??__FAllTextures@@YAXXZ
	addi         r3,r11,??__FAllTextures@@YAXXZ
	b            atexit
; End code for function: ??__EAllTextures@@YAXXZ
??__EAllTextures@@YAXXZ ENDP
							; `dynamic initializer for 'AllTextures''
; Function compile flags: /Ogsu

	.code

??__ETexturesToLog@@YAXXZ PROC NEAR			; `dynamic initializer for 'TexturesToLog'', COMDAT

; Begin code for function: ??__ETexturesToLog@@YAXXZ
; Line 23
	lis          r11,??__FTexturesToLog@@YAXXZ
	addi         r3,r11,??__FTexturesToLog@@YAXXZ
	b            atexit
; End code for function: ??__ETexturesToLog@@YAXXZ
??__ETexturesToLog@@YAXXZ ENDP
							; `dynamic initializer for 'TexturesToLog''
; Function compile flags: /Ogsu

	.code

??__ETlog@@YAXXZ PROC NEAR				; `dynamic initializer for 'Tlog'', COMDAT

; Begin code for function: ??__ETlog@@YAXXZ
; Line 25
	lis          r11,??__FTlog@@YAXXZ
	addi         r3,r11,??__FTlog@@YAXXZ
	b            atexit
; End code for function: ??__ETlog@@YAXXZ
??__ETlog@@YAXXZ ENDP
							; `dynamic initializer for 'Tlog''
EXTRN	XPhysicalAlloc:PROC
;	COMDAT .pdata
.pdata	SEGMENT
$T91309	DD	??__Ekey@@YAXXZ
	DD	040000e03H
; Function compile flags: /Ogsu

	.code

??__Ekey@@YAXXZ	PROC NEAR				; `dynamic initializer for 'key'', COMDAT

; Begin code for function: ??__Ekey@@YAXXZ
; Line 40
	mflr         r12
	stw          r12,-8(r1)
	stwu         r1,-60h(r1)
.endprolog
$M91307:
	li           r6,4
	li           r5,0
	li           r4,-1		; 0FFFFh
	li           r3,16		; 10h
	bl           XPhysicalAlloc
	lis          r11,?key@@3PAEA
	stw          r3,?key@@3PAEA(r11)
	addi         r1,r1,96		; 60h
	lwz          r12,-8(r1)
	mtlr         r12
	blr
$M91308:
; End code for function: ??__Ekey@@YAXXZ
??__Ekey@@YAXXZ ENDP
							; `dynamic initializer for 'key''
PUBLIC	?colWhite@@3VCColor@@A				; colWhite
	.data
?colWhite@@3VCColor@@A DB 0ffH				; colWhite
	DB	0ffH
	DB	0ffH
	DB	0ffH
PUBLIC	?colBlack@@3VCColor@@A				; colBlack
	.data
?colBlack@@3VCColor@@A DB 03H DUP (?)
	DB	0ffH					; colBlack
PUBLIC	?colRed@@3VCColor@@A				; colRed
	.data
?colRed@@3VCColor@@A DB 0ffH				; colRed
	DB	00H
	DB	00H
	DB	0ffH
PUBLIC	?colGreen@@3VCColor@@A				; colGreen
	.data
?colGreen@@3VCColor@@A DB 01H DUP (?)
	DB	0ffH					; colGreen
	DB	00H
	DB	0ffH
PUBLIC	?colBlue@@3VCColor@@A				; colBlue
	.data
?colBlue@@3VCColor@@A DB 02H DUP (?)
	DB	0ffH					; colBlue
	DB	0ffH
PUBLIC	?colYellow@@3VCColor@@A				; colYellow
	.data
?colYellow@@3VCColor@@A DB 0ffH				; colYellow
	DB	0ffH
	DB	00H
	DB	0ffH
PUBLIC	?colCyan@@3VCColor@@A				; colCyan
	.data
?colCyan@@3VCColor@@A DB 01H DUP (?)
	DB	0ffH					; colCyan
	DB	0ffH
	DB	0ffH
PUBLIC	?colPurple@@3VCColor@@A				; colPurple
	.data
?colPurple@@3VCColor@@A DB 0ffH				; colPurple
	DB	00H
	DB	0ffH
	DB	0ffH
; Function compile flags: /Ogsu

	.code

??__EBonePos@@YAXXZ PROC NEAR				; `dynamic initializer for 'BonePos'', COMDAT

; Begin code for function: ??__EBonePos@@YAXXZ
; File c:\users\permanulled\desktop\trainer_engine\trainer engine\trainer\mw3.h
; Line 355
	li           r10,20		; 14h
	lis          r11,?BonePos@@3PAVCVector@@A
	addi         r11,r11,?BonePos@@3PAVCVector@@A
	mtctr        r10
	lis          r10,__real@00000000
	addi         r11,r11,-4		; 0FFFCh
	lfs          fr0,__real@00000000(r10)
$LL4@dynamic:						; Start of loop
	stfs         fr0,4(r11)
	stfs         fr0,8(r11)
	stfsu        fr0,0Ch(r11)
	bdnz         $LL4@dynamic
	blr
; End code for function: ??__EBonePos@@YAXXZ
??__EBonePos@@YAXXZ ENDP
							; `dynamic initializer for 'BonePos''
;	COMDAT .pdata
.pdata	SEGMENT
$T91442	DD	??__FAllTextures@@YAXXZ
	DD	040001504H
; Function compile flags: /Ogsu

	.code

??__FAllTextures@@YAXXZ	PROC NEAR			; `dynamic atexit destructor for 'AllTextures'', COMDAT

; Begin code for function: ??__FAllTextures@@YAXXZ
	mflr         r12
	stw          r12,-8(r1)
	std          r31,-10h(r1)
	stwu         r1,-60h(r1)
.endprolog
$M91440:
	lis          r11,?AllTextures@@3V?$vector@KV?$allocator@K@std@@@std@@A
	addi         r31,r11,?AllTextures@@3V?$vector@KV?$allocator@K@std@@@std@@A
	lwz          r3,?AllTextures@@3V?$vector@KV?$allocator@K@std@@@std@@A(r11)
	cmplwi       cr6,r3,0
	beq          cr6,$LN18@dynamic@2
	bl           ??3@YAXPAX@Z
$LN18@dynamic@2:
	li           r11,0
	li           r10,0
	li           r9,0
	stw          r11,0(r31)
	stw          r10,4(r31)
	stw          r9,8(r31)
	addi         r1,r1,96		; 60h
	lwz          r12,-8(r1)
	mtlr         r12
	ld           r31,-10h(r1)
	blr
$M91441:
; End code for function: ??__FAllTextures@@YAXXZ
??__FAllTextures@@YAXXZ ENDP
							; `dynamic atexit destructor for 'AllTextures''
;	COMDAT .pdata
.pdata	SEGMENT
$T91527	DD	??__FTexturesToLog@@YAXXZ
	DD	040001504H
; Function compile flags: /Ogsu

	.code

??__FTexturesToLog@@YAXXZ PROC NEAR			; `dynamic atexit destructor for 'TexturesToLog'', COMDAT

; Begin code for function: ??__FTexturesToLog@@YAXXZ
	mflr         r12
	stw          r12,-8(r1)
	std          r31,-10h(r1)
	stwu         r1,-60h(r1)
.endprolog
$M91525:
	lis          r11,?TexturesToLog@@3V?$vector@KV?$allocator@K@std@@@std@@A
	addi         r31,r11,?TexturesToLog@@3V?$vector@KV?$allocator@K@std@@@std@@A
	lwz          r3,?TexturesToLog@@3V?$vector@KV?$allocator@K@std@@@std@@A(r11)
	cmplwi       cr6,r3,0
	beq          cr6,$LN18@dynamic@3
	bl           ??3@YAXPAX@Z
$LN18@dynamic@3:
	li           r11,0
	li           r10,0
	li           r9,0
	stw          r11,0(r31)
	stw          r10,4(r31)
	stw          r9,8(r31)
	addi         r1,r1,96		; 60h
	lwz          r12,-8(r1)
	mtlr         r12
	ld           r31,-10h(r1)
	blr
$M91526:
; End code for function: ??__FTexturesToLog@@YAXXZ
??__FTexturesToLog@@YAXXZ ENDP
							; `dynamic atexit destructor for 'TexturesToLog''
;	COMDAT .pdata
.pdata	SEGMENT
$T91636	DD	??__FTlog@@YAXXZ
	DD	040001504H
; Function compile flags: /Ogsu

	.code

??__FTlog@@YAXXZ PROC NEAR				; `dynamic atexit destructor for 'Tlog'', COMDAT

; Begin code for function: ??__FTlog@@YAXXZ
	mflr         r12
	stw          r12,-8(r1)
	std          r31,-10h(r1)
	stwu         r1,-60h(r1)
.endprolog
$M91634:
	lis          r11,?Tlog@@3VLogging@@A
	addi         r31,r11,?Tlog@@3VLogging@@A
	lwz          r3,?Tlog@@3VLogging@@A(r11)
	cmplwi       cr6,r3,0
	beq          cr6,$LN20@dynamic@4
	bl           ??3@YAXPAX@Z
$LN20@dynamic@4:
	li           r11,0
	li           r10,0
	li           r9,0
	stw          r11,0(r31)
	stw          r10,4(r31)
	stw          r9,8(r31)
	addi         r1,r1,96		; 60h
	lwz          r12,-8(r1)
	mtlr         r12
	ld           r31,-10h(r1)
	blr
$M91635:
; End code for function: ??__FTlog@@YAXXZ
??__FTlog@@YAXXZ ENDP
							; `dynamic atexit destructor for 'Tlog''
PUBLIC	?key@@3PAEA					; key
PUBLIC	?BonePos@@3PAVCVector@@A			; BonePos
PUBLIC	?Tlog@@3VLogging@@A				; Tlog
PUBLIC	?AllTextures@@3V?$vector@KV?$allocator@K@std@@@std@@A ; AllTextures
PUBLIC	?TexturesToLog@@3V?$vector@KV?$allocator@K@std@@@std@@A ; TexturesToLog
	.bss
?key@@3PAEA DD	01H DUP (?)				; key
?BonePos@@3PAVCVector@@A DB 0f0H DUP (?)		; BonePos
?Tlog@@3VLogging@@A DB 010H DUP (?)			; Tlog
?AllTextures@@3V?$vector@KV?$allocator@K@std@@@std@@A DB 010H DUP (?) ; AllTextures
?TexturesToLog@@3V?$vector@KV?$allocator@K@std@@@std@@A DB 010H DUP (?) ; TexturesToLog
	.CRT$XCU
AllTextures$initializer$ DD ??__EAllTextures@@YAXXZ
TexturesToLog$initializer$ DD ??__ETexturesToLog@@YAXXZ
Tlog$initializer$ DD ??__ETlog@@YAXXZ
key$initializer$ DD ??__Ekey@@YAXXZ
BonePos$initializer$ DD ??__EBonePos@@YAXXZ
END
